
AVRASM ver. 2.1.30  E:\University-working\Virtual Learning\99-1\Microprossecor Designing\PROJECT_9621010042\CODEVISION\TEMP2\Debug\List\temprature2.asm Tue Feb 09 00:47:09 2021

E:\University-working\Virtual Learning\99-1\Microprossecor Designing\PROJECT_9621010042\CODEVISION\TEMP2\Debug\List\temprature2.asm(1088): warning: Register r5 already defined by the .DEF directive
E:\University-working\Virtual Learning\99-1\Microprossecor Designing\PROJECT_9621010042\CODEVISION\TEMP2\Debug\List\temprature2.asm(1089): warning: Register r4 already defined by the .DEF directive
E:\University-working\Virtual Learning\99-1\Microprossecor Designing\PROJECT_9621010042\CODEVISION\TEMP2\Debug\List\temprature2.asm(1090): warning: Register r7 already defined by the .DEF directive
                 
                 
                 ;CodeVisionAVR C Compiler V3.12 Advanced
                 ;(C) Copyright 1998-2014 Pavel Haiduc, HP InfoTech s.r.l.
                 ;http://www.hpinfotech.com
                 
                 ;Build configuration    : Debug
                 ;Chip type              : ATmega16
                 ;Program type           : Application
                 ;Clock frequency        : 8.000000 MHz
                 ;Memory model           : Small
                 ;Optimize for           : Size
                 ;(s)printf features     : float, width, precision
                 ;(s)scanf features      : int, width
                 ;External RAM size      : 0
                 ;Data Stack size        : 256 byte(s)
                 ;Heap size              : 0 byte(s)
                 ;Promote 'char' to 'int': Yes
                 ;'char' is unsigned     : Yes
                 ;8 bit enums            : Yes
                 ;Global 'const' stored in FLASH: Yes
                 ;Enhanced function parameter passing: Yes
                 ;Enhanced core instructions: On
                 ;Automatic register allocation for global variables: On
                 ;Smart register allocation: On
                 
                 	#define _MODEL_SMALL_
                 
                 	#pragma AVRPART ADMIN PART_NAME ATmega16
                 	#pragma AVRPART MEMORY PROG_FLASH 16384
                 	#pragma AVRPART MEMORY EEPROM 512
                 	#pragma AVRPART MEMORY INT_SRAM SIZE 1024
                 	#pragma AVRPART MEMORY INT_SRAM START_ADDR 0x60
                 
                 	#define CALL_SUPPORTED 1
                 
                 	.LISTMAC
                 	.EQU UDRE=0x5
                 	.EQU RXC=0x7
                 	.EQU USR=0xB
                 	.EQU UDR=0xC
                 	.EQU SPSR=0xE
                 	.EQU SPDR=0xF
                 	.EQU EERE=0x0
                 	.EQU EEWE=0x1
                 	.EQU EEMWE=0x2
                 	.EQU EECR=0x1C
                 	.EQU EEDR=0x1D
                 	.EQU EEARL=0x1E
                 	.EQU EEARH=0x1F
                 	.EQU WDTCR=0x21
                 	.EQU MCUCR=0x35
                 	.EQU GICR=0x3B
                 	.EQU SPL=0x3D
                 	.EQU SPH=0x3E
                 	.EQU SREG=0x3F
                 
                 	.DEF R0X0=R0
                 	.DEF R0X1=R1
                 	.DEF R0X2=R2
                 	.DEF R0X3=R3
                 	.DEF R0X4=R4
                 	.DEF R0X5=R5
                 	.DEF R0X6=R6
                 	.DEF R0X7=R7
                 	.DEF R0X8=R8
                 	.DEF R0X9=R9
                 	.DEF R0XA=R10
                 	.DEF R0XB=R11
                 	.DEF R0XC=R12
                 	.DEF R0XD=R13
                 	.DEF R0XE=R14
                 	.DEF R0XF=R15
                 	.DEF R0X10=R16
                 	.DEF R0X11=R17
                 	.DEF R0X12=R18
                 	.DEF R0X13=R19
                 	.DEF R0X14=R20
                 	.DEF R0X15=R21
                 	.DEF R0X16=R22
                 	.DEF R0X17=R23
                 	.DEF R0X18=R24
                 	.DEF R0X19=R25
                 	.DEF R0X1A=R26
                 	.DEF R0X1B=R27
                 	.DEF R0X1C=R28
                 	.DEF R0X1D=R29
                 	.DEF R0X1E=R30
                 	.DEF R0X1F=R31
                 
                 	.EQU __SRAM_START=0x0060
                 	.EQU __SRAM_END=0x045F
                 	.EQU __DSTACK_SIZE=0x0100
                 	.EQU __HEAP_SIZE=0x0000
                 	.EQU __CLEAR_SRAM_SIZE=__SRAM_END-__SRAM_START+1
                 
                 	.MACRO __CPD1N
                 	CPI  R30,LOW(@0)
                 	LDI  R26,HIGH(@0)
                 	CPC  R31,R26
                 	LDI  R26,BYTE3(@0)
                 	CPC  R22,R26
                 	LDI  R26,BYTE4(@0)
                 	CPC  R23,R26
                 	.ENDM
                 
                 	.MACRO __CPD2N
                 	CPI  R26,LOW(@0)
                 	LDI  R30,HIGH(@0)
                 	CPC  R27,R30
                 	LDI  R30,BYTE3(@0)
                 	CPC  R24,R30
                 	LDI  R30,BYTE4(@0)
                 	CPC  R25,R30
                 	.ENDM
                 
                 	.MACRO __CPWRR
                 	CP   R@0,R@2
                 	CPC  R@1,R@3
                 	.ENDM
                 
                 	.MACRO __CPWRN
                 	CPI  R@0,LOW(@2)
                 	LDI  R30,HIGH(@2)
                 	CPC  R@1,R30
                 	.ENDM
                 
                 	.MACRO __ADDB1MN
                 	SUBI R30,LOW(-@0-(@1))
                 	.ENDM
                 
                 	.MACRO __ADDB2MN
                 	SUBI R26,LOW(-@0-(@1))
                 	.ENDM
                 
                 	.MACRO __ADDW1MN
                 	SUBI R30,LOW(-@0-(@1))
                 	SBCI R31,HIGH(-@0-(@1))
                 	.ENDM
                 
                 	.MACRO __ADDW2MN
                 	SUBI R26,LOW(-@0-(@1))
                 	SBCI R27,HIGH(-@0-(@1))
                 	.ENDM
                 
                 	.MACRO __ADDW1FN
                 	SUBI R30,LOW(-2*@0-(@1))
                 	SBCI R31,HIGH(-2*@0-(@1))
                 	.ENDM
                 
                 	.MACRO __ADDD1FN
                 	SUBI R30,LOW(-2*@0-(@1))
                 	SBCI R31,HIGH(-2*@0-(@1))
                 	SBCI R22,BYTE3(-2*@0-(@1))
                 	.ENDM
                 
                 	.MACRO __ADDD1N
                 	SUBI R30,LOW(-@0)
                 	SBCI R31,HIGH(-@0)
                 	SBCI R22,BYTE3(-@0)
                 	SBCI R23,BYTE4(-@0)
                 	.ENDM
                 
                 	.MACRO __ADDD2N
                 	SUBI R26,LOW(-@0)
                 	SBCI R27,HIGH(-@0)
                 	SBCI R24,BYTE3(-@0)
                 	SBCI R25,BYTE4(-@0)
                 	.ENDM
                 
                 	.MACRO __SUBD1N
                 	SUBI R30,LOW(@0)
                 	SBCI R31,HIGH(@0)
                 	SBCI R22,BYTE3(@0)
                 	SBCI R23,BYTE4(@0)
                 	.ENDM
                 
                 	.MACRO __SUBD2N
                 	SUBI R26,LOW(@0)
                 	SBCI R27,HIGH(@0)
                 	SBCI R24,BYTE3(@0)
                 	SBCI R25,BYTE4(@0)
                 	.ENDM
                 
                 	.MACRO __ANDBMNN
                 	LDS  R30,@0+(@1)
                 	ANDI R30,LOW(@2)
                 	STS  @0+(@1),R30
                 	.ENDM
                 
                 	.MACRO __ANDWMNN
                 	LDS  R30,@0+(@1)
                 	ANDI R30,LOW(@2)
                 	STS  @0+(@1),R30
                 	LDS  R30,@0+(@1)+1
                 	ANDI R30,HIGH(@2)
                 	STS  @0+(@1)+1,R30
                 	.ENDM
                 
                 	.MACRO __ANDD1N
                 	ANDI R30,LOW(@0)
                 	ANDI R31,HIGH(@0)
                 	ANDI R22,BYTE3(@0)
                 	ANDI R23,BYTE4(@0)
                 	.ENDM
                 
                 	.MACRO __ANDD2N
                 	ANDI R26,LOW(@0)
                 	ANDI R27,HIGH(@0)
                 	ANDI R24,BYTE3(@0)
                 	ANDI R25,BYTE4(@0)
                 	.ENDM
                 
                 	.MACRO __ORBMNN
                 	LDS  R30,@0+(@1)
                 	ORI  R30,LOW(@2)
                 	STS  @0+(@1),R30
                 	.ENDM
                 
                 	.MACRO __ORWMNN
                 	LDS  R30,@0+(@1)
                 	ORI  R30,LOW(@2)
                 	STS  @0+(@1),R30
                 	LDS  R30,@0+(@1)+1
                 	ORI  R30,HIGH(@2)
                 	STS  @0+(@1)+1,R30
                 	.ENDM
                 
                 	.MACRO __ORD1N
                 	ORI  R30,LOW(@0)
                 	ORI  R31,HIGH(@0)
                 	ORI  R22,BYTE3(@0)
                 	ORI  R23,BYTE4(@0)
                 	.ENDM
                 
                 	.MACRO __ORD2N
                 	ORI  R26,LOW(@0)
                 	ORI  R27,HIGH(@0)
                 	ORI  R24,BYTE3(@0)
                 	ORI  R25,BYTE4(@0)
                 	.ENDM
                 
                 	.MACRO __DELAY_USB
                 	LDI  R24,LOW(@0)
                 __DELAY_USB_LOOP:
                 	DEC  R24
                 	BRNE __DELAY_USB_LOOP
                 	.ENDM
                 
                 	.MACRO __DELAY_USW
                 	LDI  R24,LOW(@0)
                 	LDI  R25,HIGH(@0)
                 __DELAY_USW_LOOP:
                 	SBIW R24,1
                 	BRNE __DELAY_USW_LOOP
                 	.ENDM
                 
                 	.MACRO __GETD1S
                 	LDD  R30,Y+@0
                 	LDD  R31,Y+@0+1
                 	LDD  R22,Y+@0+2
                 	LDD  R23,Y+@0+3
                 	.ENDM
                 
                 	.MACRO __GETD2S
                 	LDD  R26,Y+@0
                 	LDD  R27,Y+@0+1
                 	LDD  R24,Y+@0+2
                 	LDD  R25,Y+@0+3
                 	.ENDM
                 
                 	.MACRO __PUTD1S
                 	STD  Y+@0,R30
                 	STD  Y+@0+1,R31
                 	STD  Y+@0+2,R22
                 	STD  Y+@0+3,R23
                 	.ENDM
                 
                 	.MACRO __PUTD2S
                 	STD  Y+@0,R26
                 	STD  Y+@0+1,R27
                 	STD  Y+@0+2,R24
                 	STD  Y+@0+3,R25
                 	.ENDM
                 
                 	.MACRO __PUTDZ2
                 	STD  Z+@0,R26
                 	STD  Z+@0+1,R27
                 	STD  Z+@0+2,R24
                 	STD  Z+@0+3,R25
                 	.ENDM
                 
                 	.MACRO __CLRD1S
                 	STD  Y+@0,R30
                 	STD  Y+@0+1,R30
                 	STD  Y+@0+2,R30
                 	STD  Y+@0+3,R30
                 	.ENDM
                 
                 	.MACRO __POINTB1MN
                 	LDI  R30,LOW(@0+(@1))
                 	.ENDM
                 
                 	.MACRO __POINTW1MN
                 	LDI  R30,LOW(@0+(@1))
                 	LDI  R31,HIGH(@0+(@1))
                 	.ENDM
                 
                 	.MACRO __POINTD1M
                 	LDI  R30,LOW(@0)
                 	LDI  R31,HIGH(@0)
                 	LDI  R22,BYTE3(@0)
                 	LDI  R23,BYTE4(@0)
                 	.ENDM
                 
                 	.MACRO __POINTW1FN
                 	LDI  R30,LOW(2*@0+(@1))
                 	LDI  R31,HIGH(2*@0+(@1))
                 	.ENDM
                 
                 	.MACRO __POINTD1FN
                 	LDI  R30,LOW(2*@0+(@1))
                 	LDI  R31,HIGH(2*@0+(@1))
                 	LDI  R22,BYTE3(2*@0+(@1))
                 	LDI  R23,BYTE4(2*@0+(@1))
                 	.ENDM
                 
                 	.MACRO __POINTB2MN
                 	LDI  R26,LOW(@0+(@1))
                 	.ENDM
                 
                 	.MACRO __POINTW2MN
                 	LDI  R26,LOW(@0+(@1))
                 	LDI  R27,HIGH(@0+(@1))
                 	.ENDM
                 
                 	.MACRO __POINTW2FN
                 	LDI  R26,LOW(2*@0+(@1))
                 	LDI  R27,HIGH(2*@0+(@1))
                 	.ENDM
                 
                 	.MACRO __POINTD2FN
                 	LDI  R26,LOW(2*@0+(@1))
                 	LDI  R27,HIGH(2*@0+(@1))
                 	LDI  R24,BYTE3(2*@0+(@1))
                 	LDI  R25,BYTE4(2*@0+(@1))
                 	.ENDM
                 
                 	.MACRO __POINTBRM
                 	LDI  R@0,LOW(@1)
                 	.ENDM
                 
                 	.MACRO __POINTWRM
                 	LDI  R@0,LOW(@2)
                 	LDI  R@1,HIGH(@2)
                 	.ENDM
                 
                 	.MACRO __POINTBRMN
                 	LDI  R@0,LOW(@1+(@2))
                 	.ENDM
                 
                 	.MACRO __POINTWRMN
                 	LDI  R@0,LOW(@2+(@3))
                 	LDI  R@1,HIGH(@2+(@3))
                 	.ENDM
                 
                 	.MACRO __POINTWRFN
                 	LDI  R@0,LOW(@2*2+(@3))
                 	LDI  R@1,HIGH(@2*2+(@3))
                 	.ENDM
                 
                 	.MACRO __GETD1N
                 	LDI  R30,LOW(@0)
                 	LDI  R31,HIGH(@0)
                 	LDI  R22,BYTE3(@0)
                 	LDI  R23,BYTE4(@0)
                 	.ENDM
                 
                 	.MACRO __GETD2N
                 	LDI  R26,LOW(@0)
                 	LDI  R27,HIGH(@0)
                 	LDI  R24,BYTE3(@0)
                 	LDI  R25,BYTE4(@0)
                 	.ENDM
                 
                 	.MACRO __GETB1MN
                 	LDS  R30,@0+(@1)
                 	.ENDM
                 
                 	.MACRO __GETB1HMN
                 	LDS  R31,@0+(@1)
                 	.ENDM
                 
                 	.MACRO __GETW1MN
                 	LDS  R30,@0+(@1)
                 	LDS  R31,@0+(@1)+1
                 	.ENDM
                 
                 	.MACRO __GETD1MN
                 	LDS  R30,@0+(@1)
                 	LDS  R31,@0+(@1)+1
                 	LDS  R22,@0+(@1)+2
                 	LDS  R23,@0+(@1)+3
                 	.ENDM
                 
                 	.MACRO __GETBRMN
                 	LDS  R@0,@1+(@2)
                 	.ENDM
                 
                 	.MACRO __GETWRMN
                 	LDS  R@0,@2+(@3)
                 	LDS  R@1,@2+(@3)+1
                 	.ENDM
                 
                 	.MACRO __GETWRZ
                 	LDD  R@0,Z+@2
                 	LDD  R@1,Z+@2+1
                 	.ENDM
                 
                 	.MACRO __GETD2Z
                 	LDD  R26,Z+@0
                 	LDD  R27,Z+@0+1
                 	LDD  R24,Z+@0+2
                 	LDD  R25,Z+@0+3
                 	.ENDM
                 
                 	.MACRO __GETB2MN
                 	LDS  R26,@0+(@1)
                 	.ENDM
                 
                 	.MACRO __GETW2MN
                 	LDS  R26,@0+(@1)
                 	LDS  R27,@0+(@1)+1
                 	.ENDM
                 
                 	.MACRO __GETD2MN
                 	LDS  R26,@0+(@1)
                 	LDS  R27,@0+(@1)+1
                 	LDS  R24,@0+(@1)+2
                 	LDS  R25,@0+(@1)+3
                 	.ENDM
                 
                 	.MACRO __PUTB1MN
                 	STS  @0+(@1),R30
                 	.ENDM
                 
                 	.MACRO __PUTW1MN
                 	STS  @0+(@1),R30
                 	STS  @0+(@1)+1,R31
                 	.ENDM
                 
                 	.MACRO __PUTD1MN
                 	STS  @0+(@1),R30
                 	STS  @0+(@1)+1,R31
                 	STS  @0+(@1)+2,R22
                 	STS  @0+(@1)+3,R23
                 	.ENDM
                 
                 	.MACRO __PUTB1EN
                 	LDI  R26,LOW(@0+(@1))
                 	LDI  R27,HIGH(@0+(@1))
                 	CALL __EEPROMWRB
                 	.ENDM
                 
                 	.MACRO __PUTW1EN
                 	LDI  R26,LOW(@0+(@1))
                 	LDI  R27,HIGH(@0+(@1))
                 	CALL __EEPROMWRW
                 	.ENDM
                 
                 	.MACRO __PUTD1EN
                 	LDI  R26,LOW(@0+(@1))
                 	LDI  R27,HIGH(@0+(@1))
                 	CALL __EEPROMWRD
                 	.ENDM
                 
                 	.MACRO __PUTBR0MN
                 	STS  @0+(@1),R0
                 	.ENDM
                 
                 	.MACRO __PUTBMRN
                 	STS  @0+(@1),R@2
                 	.ENDM
                 
                 	.MACRO __PUTWMRN
                 	STS  @0+(@1),R@2
                 	STS  @0+(@1)+1,R@3
                 	.ENDM
                 
                 	.MACRO __PUTBZR
                 	STD  Z+@1,R@0
                 	.ENDM
                 
                 	.MACRO __PUTWZR
                 	STD  Z+@2,R@0
                 	STD  Z+@2+1,R@1
                 	.ENDM
                 
                 	.MACRO __GETW1R
                 	MOV  R30,R@0
                 	MOV  R31,R@1
                 	.ENDM
                 
                 	.MACRO __GETW2R
                 	MOV  R26,R@0
                 	MOV  R27,R@1
                 	.ENDM
                 
                 	.MACRO __GETWRN
                 	LDI  R@0,LOW(@2)
                 	LDI  R@1,HIGH(@2)
                 	.ENDM
                 
                 	.MACRO __PUTW1R
                 	MOV  R@0,R30
                 	MOV  R@1,R31
                 	.ENDM
                 
                 	.MACRO __PUTW2R
                 	MOV  R@0,R26
                 	MOV  R@1,R27
                 	.ENDM
                 
                 	.MACRO __ADDWRN
                 	SUBI R@0,LOW(-@2)
                 	SBCI R@1,HIGH(-@2)
                 	.ENDM
                 
                 	.MACRO __ADDWRR
                 	ADD  R@0,R@2
                 	ADC  R@1,R@3
                 	.ENDM
                 
                 	.MACRO __SUBWRN
                 	SUBI R@0,LOW(@2)
                 	SBCI R@1,HIGH(@2)
                 	.ENDM
                 
                 	.MACRO __SUBWRR
                 	SUB  R@0,R@2
                 	SBC  R@1,R@3
                 	.ENDM
                 
                 	.MACRO __ANDWRN
                 	ANDI R@0,LOW(@2)
                 	ANDI R@1,HIGH(@2)
                 	.ENDM
                 
                 	.MACRO __ANDWRR
                 	AND  R@0,R@2
                 	AND  R@1,R@3
                 	.ENDM
                 
                 	.MACRO __ORWRN
                 	ORI  R@0,LOW(@2)
                 	ORI  R@1,HIGH(@2)
                 	.ENDM
                 
                 	.MACRO __ORWRR
                 	OR   R@0,R@2
                 	OR   R@1,R@3
                 	.ENDM
                 
                 	.MACRO __EORWRR
                 	EOR  R@0,R@2
                 	EOR  R@1,R@3
                 	.ENDM
                 
                 	.MACRO __GETWRS
                 	LDD  R@0,Y+@2
                 	LDD  R@1,Y+@2+1
                 	.ENDM
                 
                 	.MACRO __PUTBSR
                 	STD  Y+@1,R@0
                 	.ENDM
                 
                 	.MACRO __PUTWSR
                 	STD  Y+@2,R@0
                 	STD  Y+@2+1,R@1
                 	.ENDM
                 
                 	.MACRO __MOVEWRR
                 	MOV  R@0,R@2
                 	MOV  R@1,R@3
                 	.ENDM
                 
                 	.MACRO __INWR
                 	IN   R@0,@2
                 	IN   R@1,@2+1
                 	.ENDM
                 
                 	.MACRO __OUTWR
                 	OUT  @2+1,R@1
                 	OUT  @2,R@0
                 	.ENDM
                 
                 	.MACRO __CALL1MN
                 	LDS  R30,@0+(@1)
                 	LDS  R31,@0+(@1)+1
                 	ICALL
                 	.ENDM
                 
                 	.MACRO __CALL1FN
                 	LDI  R30,LOW(2*@0+(@1))
                 	LDI  R31,HIGH(2*@0+(@1))
                 	CALL __GETW1PF
                 	ICALL
                 	.ENDM
                 
                 	.MACRO __CALL2EN
                 	PUSH R26
                 	PUSH R27
                 	LDI  R26,LOW(@0+(@1))
                 	LDI  R27,HIGH(@0+(@1))
                 	CALL __EEPROMRDW
                 	POP  R27
                 	POP  R26
                 	ICALL
                 	.ENDM
                 
                 	.MACRO __CALL2EX
                 	SUBI R26,LOW(-@0)
                 	SBCI R27,HIGH(-@0)
                 	CALL __EEPROMRDD
                 	ICALL
                 	.ENDM
                 
                 	.MACRO __GETW1STACK
                 	IN   R30,SPL
                 	IN   R31,SPH
                 	ADIW R30,@0+1
                 	LD   R0,Z+
                 	LD   R31,Z
                 	MOV  R30,R0
                 	.ENDM
                 
                 	.MACRO __GETD1STACK
                 	IN   R30,SPL
                 	IN   R31,SPH
                 	ADIW R30,@0+1
                 	LD   R0,Z+
                 	LD   R1,Z+
                 	LD   R22,Z
                 	MOVW R30,R0
                 	.ENDM
                 
                 	.MACRO __NBST
                 	BST  R@0,@1
                 	IN   R30,SREG
                 	LDI  R31,0x40
                 	EOR  R30,R31
                 	OUT  SREG,R30
                 	.ENDM
                 
                 
                 	.MACRO __PUTB1SN
                 	LDD  R26,Y+@0
                 	LDD  R27,Y+@0+1
                 	SUBI R26,LOW(-@1)
                 	SBCI R27,HIGH(-@1)
                 	ST   X,R30
                 	.ENDM
                 
                 	.MACRO __PUTW1SN
                 	LDD  R26,Y+@0
                 	LDD  R27,Y+@0+1
                 	SUBI R26,LOW(-@1)
                 	SBCI R27,HIGH(-@1)
                 	ST   X+,R30
                 	ST   X,R31
                 	.ENDM
                 
                 	.MACRO __PUTD1SN
                 	LDD  R26,Y+@0
                 	LDD  R27,Y+@0+1
                 	SUBI R26,LOW(-@1)
                 	SBCI R27,HIGH(-@1)
                 	CALL __PUTDP1
                 	.ENDM
                 
                 	.MACRO __PUTB1SNS
                 	LDD  R26,Y+@0
                 	LDD  R27,Y+@0+1
                 	ADIW R26,@1
                 	ST   X,R30
                 	.ENDM
                 
                 	.MACRO __PUTW1SNS
                 	LDD  R26,Y+@0
                 	LDD  R27,Y+@0+1
                 	ADIW R26,@1
                 	ST   X+,R30
                 	ST   X,R31
                 	.ENDM
                 
                 	.MACRO __PUTD1SNS
                 	LDD  R26,Y+@0
                 	LDD  R27,Y+@0+1
                 	ADIW R26,@1
                 	CALL __PUTDP1
                 	.ENDM
                 
                 	.MACRO __PUTB1PMN
                 	LDS  R26,@0
                 	LDS  R27,@0+1
                 	SUBI R26,LOW(-@1)
                 	SBCI R27,HIGH(-@1)
                 	ST   X,R30
                 	.ENDM
                 
                 	.MACRO __PUTW1PMN
                 	LDS  R26,@0
                 	LDS  R27,@0+1
                 	SUBI R26,LOW(-@1)
                 	SBCI R27,HIGH(-@1)
                 	ST   X+,R30
                 	ST   X,R31
                 	.ENDM
                 
                 	.MACRO __PUTD1PMN
                 	LDS  R26,@0
                 	LDS  R27,@0+1
                 	SUBI R26,LOW(-@1)
                 	SBCI R27,HIGH(-@1)
                 	CALL __PUTDP1
                 	.ENDM
                 
                 	.MACRO __PUTB1PMNS
                 	LDS  R26,@0
                 	LDS  R27,@0+1
                 	ADIW R26,@1
                 	ST   X,R30
                 	.ENDM
                 
                 	.MACRO __PUTW1PMNS
                 	LDS  R26,@0
                 	LDS  R27,@0+1
                 	ADIW R26,@1
                 	ST   X+,R30
                 	ST   X,R31
                 	.ENDM
                 
                 	.MACRO __PUTD1PMNS
                 	LDS  R26,@0
                 	LDS  R27,@0+1
                 	ADIW R26,@1
                 	CALL __PUTDP1
                 	.ENDM
                 
                 	.MACRO __PUTB1RN
                 	MOVW R26,R@0
                 	SUBI R26,LOW(-@1)
                 	SBCI R27,HIGH(-@1)
                 	ST   X,R30
                 	.ENDM
                 
                 	.MACRO __PUTW1RN
                 	MOVW R26,R@0
                 	SUBI R26,LOW(-@1)
                 	SBCI R27,HIGH(-@1)
                 	ST   X+,R30
                 	ST   X,R31
                 	.ENDM
                 
                 	.MACRO __PUTD1RN
                 	MOVW R26,R@0
                 	SUBI R26,LOW(-@1)
                 	SBCI R27,HIGH(-@1)
                 	CALL __PUTDP1
                 	.ENDM
                 
                 	.MACRO __PUTB1RNS
                 	MOVW R26,R@0
                 	ADIW R26,@1
                 	ST   X,R30
                 	.ENDM
                 
                 	.MACRO __PUTW1RNS
                 	MOVW R26,R@0
                 	ADIW R26,@1
                 	ST   X+,R30
                 	ST   X,R31
                 	.ENDM
                 
                 	.MACRO __PUTD1RNS
                 	MOVW R26,R@0
                 	ADIW R26,@1
                 	CALL __PUTDP1
                 	.ENDM
                 
                 	.MACRO __PUTB1RON
                 	MOV  R26,R@0
                 	MOV  R27,R@1
                 	SUBI R26,LOW(-@2)
                 	SBCI R27,HIGH(-@2)
                 	ST   X,R30
                 	.ENDM
                 
                 	.MACRO __PUTW1RON
                 	MOV  R26,R@0
                 	MOV  R27,R@1
                 	SUBI R26,LOW(-@2)
                 	SBCI R27,HIGH(-@2)
                 	ST   X+,R30
                 	ST   X,R31
                 	.ENDM
                 
                 	.MACRO __PUTD1RON
                 	MOV  R26,R@0
                 	MOV  R27,R@1
                 	SUBI R26,LOW(-@2)
                 	SBCI R27,HIGH(-@2)
                 	CALL __PUTDP1
                 	.ENDM
                 
                 	.MACRO __PUTB1RONS
                 	MOV  R26,R@0
                 	MOV  R27,R@1
                 	ADIW R26,@2
                 	ST   X,R30
                 	.ENDM
                 
                 	.MACRO __PUTW1RONS
                 	MOV  R26,R@0
                 	MOV  R27,R@1
                 	ADIW R26,@2
                 	ST   X+,R30
                 	ST   X,R31
                 	.ENDM
                 
                 	.MACRO __PUTD1RONS
                 	MOV  R26,R@0
                 	MOV  R27,R@1
                 	ADIW R26,@2
                 	CALL __PUTDP1
                 	.ENDM
                 
                 
                 	.MACRO __GETB1SX
                 	MOVW R30,R28
                 	SUBI R30,LOW(-@0)
                 	SBCI R31,HIGH(-@0)
                 	LD   R30,Z
                 	.ENDM
                 
                 	.MACRO __GETB1HSX
                 	MOVW R30,R28
                 	SUBI R30,LOW(-@0)
                 	SBCI R31,HIGH(-@0)
                 	LD   R31,Z
                 	.ENDM
                 
                 	.MACRO __GETW1SX
                 	MOVW R30,R28
                 	SUBI R30,LOW(-@0)
                 	SBCI R31,HIGH(-@0)
                 	LD   R0,Z+
                 	LD   R31,Z
                 	MOV  R30,R0
                 	.ENDM
                 
                 	.MACRO __GETD1SX
                 	MOVW R30,R28
                 	SUBI R30,LOW(-@0)
                 	SBCI R31,HIGH(-@0)
                 	LD   R0,Z+
                 	LD   R1,Z+
                 	LD   R22,Z+
                 	LD   R23,Z
                 	MOVW R30,R0
                 	.ENDM
                 
                 	.MACRO __GETB2SX
                 	MOVW R26,R28
                 	SUBI R26,LOW(-@0)
                 	SBCI R27,HIGH(-@0)
                 	LD   R26,X
                 	.ENDM
                 
                 	.MACRO __GETW2SX
                 	MOVW R26,R28
                 	SUBI R26,LOW(-@0)
                 	SBCI R27,HIGH(-@0)
                 	LD   R0,X+
                 	LD   R27,X
                 	MOV  R26,R0
                 	.ENDM
                 
                 	.MACRO __GETD2SX
                 	MOVW R26,R28
                 	SUBI R26,LOW(-@0)
                 	SBCI R27,HIGH(-@0)
                 	LD   R0,X+
                 	LD   R1,X+
                 	LD   R24,X+
                 	LD   R25,X
                 	MOVW R26,R0
                 	.ENDM
                 
                 	.MACRO __GETBRSX
                 	MOVW R30,R28
                 	SUBI R30,LOW(-@1)
                 	SBCI R31,HIGH(-@1)
                 	LD   R@0,Z
                 	.ENDM
                 
                 	.MACRO __GETWRSX
                 	MOVW R30,R28
                 	SUBI R30,LOW(-@2)
                 	SBCI R31,HIGH(-@2)
                 	LD   R@0,Z+
                 	LD   R@1,Z
                 	.ENDM
                 
                 	.MACRO __GETBRSX2
                 	MOVW R26,R28
                 	SUBI R26,LOW(-@1)
                 	SBCI R27,HIGH(-@1)
                 	LD   R@0,X
                 	.ENDM
                 
                 	.MACRO __GETWRSX2
                 	MOVW R26,R28
                 	SUBI R26,LOW(-@2)
                 	SBCI R27,HIGH(-@2)
                 	LD   R@0,X+
                 	LD   R@1,X
                 	.ENDM
                 
                 	.MACRO __LSLW8SX
                 	MOVW R30,R28
                 	SUBI R30,LOW(-@0)
                 	SBCI R31,HIGH(-@0)
                 	LD   R31,Z
                 	CLR  R30
                 	.ENDM
                 
                 	.MACRO __PUTB1SX
                 	MOVW R26,R28
                 	SUBI R26,LOW(-@0)
                 	SBCI R27,HIGH(-@0)
                 	ST   X,R30
                 	.ENDM
                 
                 	.MACRO __PUTW1SX
                 	MOVW R26,R28
                 	SUBI R26,LOW(-@0)
                 	SBCI R27,HIGH(-@0)
                 	ST   X+,R30
                 	ST   X,R31
                 	.ENDM
                 
                 	.MACRO __PUTD1SX
                 	MOVW R26,R28
                 	SUBI R26,LOW(-@0)
                 	SBCI R27,HIGH(-@0)
                 	ST   X+,R30
                 	ST   X+,R31
                 	ST   X+,R22
                 	ST   X,R23
                 	.ENDM
                 
                 	.MACRO __CLRW1SX
                 	MOVW R26,R28
                 	SUBI R26,LOW(-@0)
                 	SBCI R27,HIGH(-@0)
                 	ST   X+,R30
                 	ST   X,R30
                 	.ENDM
                 
                 	.MACRO __CLRD1SX
                 	MOVW R26,R28
                 	SUBI R26,LOW(-@0)
                 	SBCI R27,HIGH(-@0)
                 	ST   X+,R30
                 	ST   X+,R30
                 	ST   X+,R30
                 	ST   X,R30
                 	.ENDM
                 
                 	.MACRO __PUTB2SX
                 	MOVW R30,R28
                 	SUBI R30,LOW(-@0)
                 	SBCI R31,HIGH(-@0)
                 	ST   Z,R26
                 	.ENDM
                 
                 	.MACRO __PUTW2SX
                 	MOVW R30,R28
                 	SUBI R30,LOW(-@0)
                 	SBCI R31,HIGH(-@0)
                 	ST   Z+,R26
                 	ST   Z,R27
                 	.ENDM
                 
                 	.MACRO __PUTD2SX
                 	MOVW R30,R28
                 	SUBI R30,LOW(-@0)
                 	SBCI R31,HIGH(-@0)
                 	ST   Z+,R26
                 	ST   Z+,R27
                 	ST   Z+,R24
                 	ST   Z,R25
                 	.ENDM
                 
                 	.MACRO __PUTBSRX
                 	MOVW R30,R28
                 	SUBI R30,LOW(-@1)
                 	SBCI R31,HIGH(-@1)
                 	ST   Z,R@0
                 	.ENDM
                 
                 	.MACRO __PUTWSRX
                 	MOVW R30,R28
                 	SUBI R30,LOW(-@2)
                 	SBCI R31,HIGH(-@2)
                 	ST   Z+,R@0
                 	ST   Z,R@1
                 	.ENDM
                 
                 	.MACRO __PUTB1SNX
                 	MOVW R26,R28
                 	SUBI R26,LOW(-@0)
                 	SBCI R27,HIGH(-@0)
                 	LD   R0,X+
                 	LD   R27,X
                 	MOV  R26,R0
                 	SUBI R26,LOW(-@1)
                 	SBCI R27,HIGH(-@1)
                 	ST   X,R30
                 	.ENDM
                 
                 	.MACRO __PUTW1SNX
                 	MOVW R26,R28
                 	SUBI R26,LOW(-@0)
                 	SBCI R27,HIGH(-@0)
                 	LD   R0,X+
                 	LD   R27,X
                 	MOV  R26,R0
                 	SUBI R26,LOW(-@1)
                 	SBCI R27,HIGH(-@1)
                 	ST   X+,R30
                 	ST   X,R31
                 	.ENDM
                 
                 	.MACRO __PUTD1SNX
                 	MOVW R26,R28
                 	SUBI R26,LOW(-@0)
                 	SBCI R27,HIGH(-@0)
                 	LD   R0,X+
                 	LD   R27,X
                 	MOV  R26,R0
                 	SUBI R26,LOW(-@1)
                 	SBCI R27,HIGH(-@1)
                 	ST   X+,R30
                 	ST   X+,R31
                 	ST   X+,R22
                 	ST   X,R23
                 	.ENDM
                 
                 	.MACRO __MULBRR
                 	MULS R@0,R@1
                 	MOVW R30,R0
                 	.ENDM
                 
                 	.MACRO __MULBRRU
                 	MUL  R@0,R@1
                 	MOVW R30,R0
                 	.ENDM
                 
                 	.MACRO __MULBRR0
                 	MULS R@0,R@1
                 	.ENDM
                 
                 	.MACRO __MULBRRU0
                 	MUL  R@0,R@1
                 	.ENDM
                 
                 	.MACRO __MULBNWRU
                 	LDI  R26,@2
                 	MUL  R26,R@0
                 	MOVW R30,R0
                 	MUL  R26,R@1
                 	ADD  R31,R0
                 	.ENDM
                 
                 ;NAME DEFINITIONS FOR GLOBAL VARIABLES ALLOCATED TO REGISTERS
                 	.DEF _tx_wr_index=R5
                 	.DEF _tx_rd_index=R4
                 	.DEF _tx_counter=R7
                 
                 	.CSEG
                 	.ORG 0x00
                 
                 ;START OF CODE MARKER
                 __START_OF_CODE:
                 
                 ;INTERRUPT VECTORS
000000 940c 019e 	JMP  __RESET
000002 940c 0000 	JMP  0x00
000004 940c 0000 	JMP  0x00
000006 940c 0000 	JMP  0x00
000008 940c 0000 	JMP  0x00
00000a 940c 0000 	JMP  0x00
00000c 940c 0000 	JMP  0x00
00000e 940c 0000 	JMP  0x00
000010 940c 0000 	JMP  0x00
000012 940c 0000 	JMP  0x00
000014 940c 0000 	JMP  0x00
000016 940c 0000 	JMP  0x00
000018 940c 0000 	JMP  0x00
00001a 940c 01cb 	JMP  _usart_tx_isr
00001c 940c 0000 	JMP  0x00
00001e 940c 0000 	JMP  0x00
000020 940c 0000 	JMP  0x00
000022 940c 0000 	JMP  0x00
000024 940c 0000 	JMP  0x00
000026 940c 0000 	JMP  0x00
000028 940c 0000 	JMP  0x00
                 
                 _font5x7:
00002a 0705
00002b 6020
00002c 0000
00002d 0000      	.DB  0x5,0x7,0x20,0x60,0x0,0x0,0x0,0x0
00002e 0000
00002f 5f00
000030 0000
000031 0700      	.DB  0x0,0x0,0x0,0x5F,0x0,0x0,0x0,0x7
000032 0700
000033 1400
000034 147f
000035 147f      	.DB  0x0,0x7,0x0,0x14,0x7F,0x14,0x7F,0x14
000036 2a24
000037 2a7f
000038 2312
000039 0813      	.DB  0x24,0x2A,0x7F,0x2A,0x12,0x23,0x13,0x8
00003a 6264
00003b 4936
00003c 2255
00003d 0050      	.DB  0x64,0x62,0x36,0x49,0x55,0x22,0x50,0x0
00003e 0305
00003f 0000
000040 1c00
000041 4122      	.DB  0x5,0x3,0x0,0x0,0x0,0x1C,0x22,0x41
000042 0000
000043 2241
000044 001c
000045 2a08      	.DB  0x0,0x0,0x41,0x22,0x1C,0x0,0x8,0x2A
000046 2a1c
000047 0808
000048 3e08
000049 0808      	.DB  0x1C,0x2A,0x8,0x8,0x8,0x3E,0x8,0x8
00004a 5000
00004b 0030
00004c 0800
00004d 0808      	.DB  0x0,0x50,0x30,0x0,0x0,0x8,0x8,0x8
00004e 0808
00004f 3000
000050 0030
000051 2000      	.DB  0x8,0x8,0x0,0x30,0x30,0x0,0x0,0x20
000052 0810
000053 0204
000054 513e
000055 4549      	.DB  0x10,0x8,0x4,0x2,0x3E,0x51,0x49,0x45
000056 003e
000057 7f42
000058 0040
000059 6142      	.DB  0x3E,0x0,0x42,0x7F,0x40,0x0,0x42,0x61
00005a 4951
00005b 2146
00005c 4541
00005d 314b      	.DB  0x51,0x49,0x46,0x21,0x41,0x45,0x4B,0x31
00005e 1418
00005f 7f12
000060 2710
000061 4545      	.DB  0x18,0x14,0x12,0x7F,0x10,0x27,0x45,0x45
000062 3945
000063 4a3c
000064 4949
000065 0130      	.DB  0x45,0x39,0x3C,0x4A,0x49,0x49,0x30,0x1
000066 0971
000067 0305
000068 4936
000069 4949      	.DB  0x71,0x9,0x5,0x3,0x36,0x49,0x49,0x49
00006a 0636
00006b 4949
00006c 1e29
00006d 3600      	.DB  0x36,0x6,0x49,0x49,0x29,0x1E,0x0,0x36
00006e 0036
00006f 0000
000070 3656
000071 0000      	.DB  0x36,0x0,0x0,0x0,0x56,0x36,0x0,0x0
000072 0800
000073 2214
000074 1441
000075 1414      	.DB  0x0,0x8,0x14,0x22,0x41,0x14,0x14,0x14
000076 1414
000077 2241
000078 0814
000079 0200      	.DB  0x14,0x14,0x41,0x22,0x14,0x8,0x0,0x2
00007a 5101
00007b 0609
00007c 4932
00007d 4179      	.DB  0x1,0x51,0x9,0x6,0x32,0x49,0x79,0x41
00007e 7e3e
00007f 1111
000080 7e11
000081 497f      	.DB  0x3E,0x7E,0x11,0x11,0x11,0x7E,0x7F,0x49
000082 4949
000083 3e36
000084 4141
000085 2241      	.DB  0x49,0x49,0x36,0x3E,0x41,0x41,0x41,0x22
000086 417f
000087 2241
000088 7f1c
000089 4949      	.DB  0x7F,0x41,0x41,0x22,0x1C,0x7F,0x49,0x49
00008a 4149
00008b 097f
00008c 0109
00008d 3e01      	.DB  0x49,0x41,0x7F,0x9,0x9,0x1,0x1,0x3E
00008e 4141
00008f 3251
000090 087f
000091 0808      	.DB  0x41,0x41,0x51,0x32,0x7F,0x8,0x8,0x8
000092 007f
000093 7f41
000094 0041
000095 4020      	.DB  0x7F,0x0,0x41,0x7F,0x41,0x0,0x20,0x40
000096 3f41
000097 7f01
000098 1408
000099 4122      	.DB  0x41,0x3F,0x1,0x7F,0x8,0x14,0x22,0x41
00009a 407f
00009b 4040
00009c 7f40
00009d 0402      	.DB  0x7F,0x40,0x40,0x40,0x40,0x7F,0x2,0x4
00009e 7f02
00009f 047f
0000a0 1008
0000a1 3e7f      	.DB  0x2,0x7F,0x7F,0x4,0x8,0x10,0x7F,0x3E
0000a2 4141
0000a3 3e41
0000a4 097f
0000a5 0909      	.DB  0x41,0x41,0x41,0x3E,0x7F,0x9,0x9,0x9
0000a6 3e06
0000a7 5141
0000a8 5e21
0000a9 097f      	.DB  0x6,0x3E,0x41,0x51,0x21,0x5E,0x7F,0x9
0000aa 2919
0000ab 4646
0000ac 4949
0000ad 3149      	.DB  0x19,0x29,0x46,0x46,0x49,0x49,0x49,0x31
0000ae 0101
0000af 017f
0000b0 3f01
0000b1 4040      	.DB  0x1,0x1,0x7F,0x1,0x1,0x3F,0x40,0x40
0000b2 3f40
0000b3 201f
0000b4 2040
0000b5 7f1f      	.DB  0x40,0x3F,0x1F,0x20,0x40,0x20,0x1F,0x7F
0000b6 1820
0000b7 7f20
0000b8 1463
0000b9 1408      	.DB  0x20,0x18,0x20,0x7F,0x63,0x14,0x8,0x14
0000ba 0363
0000bb 7804
0000bc 0304
0000bd 5161      	.DB  0x63,0x3,0x4,0x78,0x4,0x3,0x61,0x51
0000be 4549
0000bf 0043
0000c0 7f00
0000c1 4141      	.DB  0x49,0x45,0x43,0x0,0x0,0x7F,0x41,0x41
0000c2 0402
0000c3 1008
0000c4 4120
0000c5 7f41      	.DB  0x2,0x4,0x8,0x10,0x20,0x41,0x41,0x7F
0000c6 0000
0000c7 0204
0000c8 0201
0000c9 4004      	.DB  0x0,0x0,0x4,0x2,0x1,0x2,0x4,0x40
0000ca 4040
0000cb 4040
0000cc 0100
0000cd 0402      	.DB  0x40,0x40,0x40,0x40,0x0,0x1,0x2,0x4
0000ce 2000
0000cf 5454
0000d0 7854
0000d1 487f      	.DB  0x0,0x20,0x54,0x54,0x54,0x78,0x7F,0x48
0000d2 4444
0000d3 3838
0000d4 4444
0000d5 2044      	.DB  0x44,0x44,0x38,0x38,0x44,0x44,0x44,0x20
0000d6 4438
0000d7 4844
0000d8 387f
0000d9 5454      	.DB  0x38,0x44,0x44,0x48,0x7F,0x38,0x54,0x54
0000da 1854
0000db 7e08
0000dc 0109
0000dd 0802      	.DB  0x54,0x18,0x8,0x7E,0x9,0x1,0x2,0x8
0000de 5414
0000df 3c54
0000e0 087f
0000e1 0404      	.DB  0x14,0x54,0x54,0x3C,0x7F,0x8,0x4,0x4
0000e2 0078
0000e3 7d44
0000e4 0040
0000e5 4020      	.DB  0x78,0x0,0x44,0x7D,0x40,0x0,0x20,0x40
0000e6 3d44
0000e7 0000
0000e8 107f
0000e9 4428      	.DB  0x44,0x3D,0x0,0x0,0x7F,0x10,0x28,0x44
0000ea 4100
0000eb 407f
0000ec 7c00
0000ed 1804      	.DB  0x0,0x41,0x7F,0x40,0x0,0x7C,0x4,0x18
0000ee 7804
0000ef 087c
0000f0 0404
0000f1 3878      	.DB  0x4,0x78,0x7C,0x8,0x4,0x4,0x78,0x38
0000f2 4444
0000f3 3844
0000f4 147c
0000f5 1414      	.DB  0x44,0x44,0x44,0x38,0x7C,0x14,0x14,0x14
0000f6 0808
0000f7 1414
0000f8 7c18
0000f9 087c      	.DB  0x8,0x8,0x14,0x14,0x18,0x7C,0x7C,0x8
0000fa 0404
0000fb 4808
0000fc 5454
0000fd 2054      	.DB  0x4,0x4,0x8,0x48,0x54,0x54,0x54,0x20
0000fe 3f04
0000ff 4044
000100 3c20
000101 4040      	.DB  0x4,0x3F,0x44,0x40,0x20,0x3C,0x40,0x40
000102 7c20
000103 201c
000104 2040
000105 3c1c      	.DB  0x20,0x7C,0x1C,0x20,0x40,0x20,0x1C,0x3C
000106 3040
000107 3c40
000108 2844
000109 2810      	.DB  0x40,0x30,0x40,0x3C,0x44,0x28,0x10,0x28
00010a 0c44
00010b 5050
00010c 3c50
00010d 6444      	.DB  0x44,0xC,0x50,0x50,0x50,0x3C,0x44,0x64
00010e 4c54
00010f 0044
000110 3608
000111 0041      	.DB  0x54,0x4C,0x44,0x0,0x8,0x36,0x41,0x0
000112 0000
000113 007f
000114 0000
000115 3641      	.DB  0x0,0x0,0x7F,0x0,0x0,0x0,0x41,0x36
000116 0008
000117 0102
000118 0402
000119 7f02      	.DB  0x8,0x0,0x2,0x1,0x2,0x4,0x2,0x7F
00011a 4141
00011b 7f41      	.DB  0x41,0x41,0x41,0x7F
                 __glcd_mask:
00011c 0100
00011d 0703
00011e 1f0f
00011f 7f3f      	.DB  0x0,0x1,0x3,0x7,0xF,0x1F,0x3F,0x7F
E:\University-working\Virtual Learning\99-1\Microprossecor Designing\PROJECT_9621010042\CODEVISION\TEMP2\Debug\List\temprature2.asm(1185): warning: .cseg .db misalignment - padding zero byte
000120 00ff      	.DB  0xFF
                 
                 ;GLOBAL REGISTER VARIABLES INITIALIZATION
                 __REG_VARS:
000121 0000
000122 0000      	.DB  0x0,0x0,0x0,0x0
                 
                 _0x0:
000123 4557
000124 434c
000125 4d4f
000126 2145      	.DB  0x57,0x45,0x4C,0x43,0x4F,0x4D,0x45,0x21
000127 5400
000128 4d45
000129 5250
00012a 5441      	.DB  0x0,0x54,0x45,0x4D,0x50,0x52,0x41,0x54
00012b 5255
00012c 2045
00012d 4e20
00012e 574f      	.DB  0x55,0x52,0x45,0x20,0x20,0x4E,0x4F,0x57
00012f 003a
000130 4c50
000131 544f
000132 4900      	.DB  0x3A,0x0,0x50,0x4C,0x4F,0x54,0x0,0x49
000133 464e
000134 004f
000135 2d2d
000136 253e      	.DB  0x4E,0x46,0x4F,0x0,0x2D,0x2D,0x3E,0x25
000137 352d
000138 322e
000139 3c66
00013a 2d2d      	.DB  0x2D,0x35,0x2E,0x32,0x66,0x3C,0x2D,0x2D
00013b 7a00
00013c 255a
00013d 3530
00013e 322e      	.DB  0x0,0x7A,0x5A,0x25,0x30,0x35,0x2E,0x32
00013f 2066
000140 5843
000141 0078
000142 4b42      	.DB  0x66,0x20,0x43,0x58,0x78,0x0,0x42,0x4B
000143 4100
000144 4556
000145 4152
000146 4547      	.DB  0x0,0x41,0x56,0x45,0x52,0x41,0x47,0x45
000147 5420
000148 4d45
000149 5250
00014a 5441      	.DB  0x20,0x54,0x45,0x4D,0x50,0x52,0x41,0x54
00014b 5255
00014c 3a45
00014d 4d00
00014e 5841      	.DB  0x55,0x52,0x45,0x3A,0x0,0x4D,0x41,0x58
00014f 5420
000150 4d45
000151 5250
000152 5441      	.DB  0x20,0x54,0x45,0x4D,0x50,0x52,0x41,0x54
000153 5255
000154 3a45
000155 4d00
000156 4e49      	.DB  0x55,0x52,0x45,0x3A,0x0,0x4D,0x49,0x4E
000157 5420
000158 4d45
000159 5250
00015a 5441      	.DB  0x20,0x54,0x45,0x4D,0x50,0x52,0x41,0x54
00015b 5255
00015c 3a45
00015d 2500
00015e 352d      	.DB  0x55,0x52,0x45,0x3A,0x0,0x25,0x2D,0x35
00015f 322e
000160 0066      	.DB  0x2E,0x32,0x66,0x0
                 _0x2060000:
000161 4e2d
000162 4e41
E:\University-working\Virtual Learning\99-1\Microprossecor Designing\PROJECT_9621010042\CODEVISION\TEMP2\Debug\List\temprature2.asm(1209): warning: .cseg .db misalignment - padding zero byte
000163 0000      	.DB  0x2D,0x4E,0x41,0x4E,0x0
                 _0x2080060:
E:\University-working\Virtual Learning\99-1\Microprossecor Designing\PROJECT_9621010042\CODEVISION\TEMP2\Debug\List\temprature2.asm(1211): warning: .cseg .db misalignment - padding zero byte
000164 0001      	.DB  0x1
                 _0x2080000:
000165 4e2d
000166 4e41
000167 4900
000168 464e      	.DB  0x2D,0x4E,0x41,0x4E,0x0,0x49,0x4E,0x46
E:\University-working\Virtual Learning\99-1\Microprossecor Designing\PROJECT_9621010042\CODEVISION\TEMP2\Debug\List\temprature2.asm(1214): warning: .cseg .db misalignment - padding zero byte
000169 0000      	.DB  0x0
                 
                 __GLOBAL_INI_TBL:
00016a 0004      	.DW  0x04
00016b 0004      	.DW  0x04
00016c 0242      	.DW  __REG_VARS*2
                 
00016d 0009      	.DW  0x09
00016e 0160      	.DW  _0x10
00016f 0246      	.DW  _0x0*2
                 
000170 0011      	.DW  0x11
000171 0169      	.DW  _0x10+9
000172 024f      	.DW  _0x0*2+9
                 
000173 0005      	.DW  0x05
000174 017a      	.DW  _0x10+26
000175 0260      	.DW  _0x0*2+26
                 
000176 0005      	.DW  0x05
000177 017f      	.DW  _0x10+31
000178 0265      	.DW  _0x0*2+31
                 
000179 0003      	.DW  0x03
00017a 0184      	.DW  _0x37
00017b 0284      	.DW  _0x0*2+62
                 
00017c 0011      	.DW  0x11
00017d 0187      	.DW  _0x37+3
00017e 024f      	.DW  _0x0*2+9
                 
00017f 0005      	.DW  0x05
000180 0198      	.DW  _0x37+20
000181 0260      	.DW  _0x0*2+26
                 
000182 0005      	.DW  0x05
000183 019d      	.DW  _0x37+25
000184 0265      	.DW  _0x0*2+31
                 
000185 0014      	.DW  0x14
000186 01a2      	.DW  _0x3E
000187 0287      	.DW  _0x0*2+65
                 
000188 0010      	.DW  0x10
000189 01b6      	.DW  _0x3E+20
00018a 029b      	.DW  _0x0*2+85
                 
00018b 0010      	.DW  0x10
00018c 01c6      	.DW  _0x3E+36
00018d 02ab      	.DW  _0x0*2+101
                 
00018e 0003      	.DW  0x03
00018f 01d6      	.DW  _0x3E+52
000190 0284      	.DW  _0x0*2+62
                 
000191 0011      	.DW  0x11
000192 01d9      	.DW  _0x3E+55
000193 024f      	.DW  _0x0*2+9
                 
000194 0005      	.DW  0x05
000195 01ea      	.DW  _0x3E+72
000196 0260      	.DW  _0x0*2+26
                 
000197 0005      	.DW  0x05
000198 01ef      	.DW  _0x3E+77
000199 0265      	.DW  _0x0*2+31
                 
00019a 0001      	.DW  0x01
00019b 021c      	.DW  __seed_G104
00019c 02c8      	.DW  _0x2080060*2
                 
                 _0xFFFFFFFF:
00019d 0000      	.DW  0
                 
                 #define __GLOBAL_INI_TBL_PRESENT 1
                 
                 __RESET:
00019e 94f8      	CLI
00019f 27ee      	CLR  R30
0001a0 bbec      	OUT  EECR,R30
                 
                 ;INTERRUPT VECTORS ARE PLACED
                 ;AT THE START OF FLASH
0001a1 e0f1      	LDI  R31,1
0001a2 bffb      	OUT  GICR,R31
0001a3 bfeb      	OUT  GICR,R30
0001a4 bfe5      	OUT  MCUCR,R30
                 
                 ;CLEAR R2-R14
0001a5 e08d      	LDI  R24,(14-2)+1
0001a6 e0a2      	LDI  R26,2
0001a7 27bb      	CLR  R27
                 __CLEAR_REG:
0001a8 93ed      	ST   X+,R30
0001a9 958a      	DEC  R24
0001aa f7e9      	BRNE __CLEAR_REG
                 
                 ;CLEAR SRAM
0001ab e080      	LDI  R24,LOW(__CLEAR_SRAM_SIZE)
0001ac e094      	LDI  R25,HIGH(__CLEAR_SRAM_SIZE)
0001ad e6a0      	LDI  R26,__SRAM_START
                 __CLEAR_SRAM:
0001ae 93ed      	ST   X+,R30
0001af 9701      	SBIW R24,1
0001b0 f7e9      	BRNE __CLEAR_SRAM
                 
                 ;GLOBAL VARIABLES INITIALIZATION
0001b1 ede4      	LDI  R30,LOW(__GLOBAL_INI_TBL*2)
0001b2 e0f2      	LDI  R31,HIGH(__GLOBAL_INI_TBL*2)
                 __GLOBAL_INI_NEXT:
0001b3 9185      	LPM  R24,Z+
0001b4 9195      	LPM  R25,Z+
0001b5 9700      	SBIW R24,0
0001b6 f061      	BREQ __GLOBAL_INI_END
0001b7 91a5      	LPM  R26,Z+
0001b8 91b5      	LPM  R27,Z+
0001b9 9005      	LPM  R0,Z+
0001ba 9015      	LPM  R1,Z+
0001bb 01bf      	MOVW R22,R30
0001bc 01f0      	MOVW R30,R0
                 __GLOBAL_INI_LOOP:
0001bd 9005      	LPM  R0,Z+
0001be 920d      	ST   X+,R0
0001bf 9701      	SBIW R24,1
0001c0 f7e1      	BRNE __GLOBAL_INI_LOOP
0001c1 01fb      	MOVW R30,R22
0001c2 cff0      	RJMP __GLOBAL_INI_NEXT
                 __GLOBAL_INI_END:
                 
                 ;HARDWARE STACK POINTER INITIALIZATION
0001c3 e5ef      	LDI  R30,LOW(__SRAM_END-__HEAP_SIZE)
0001c4 bfed      	OUT  SPL,R30
0001c5 e0e4      	LDI  R30,HIGH(__SRAM_END-__HEAP_SIZE)
0001c6 bfee      	OUT  SPH,R30
                 
                 ;DATA STACK POINTER INITIALIZATION
0001c7 e6c0      	LDI  R28,LOW(__SRAM_START+__DSTACK_SIZE)
0001c8 e0d1      	LDI  R29,HIGH(__SRAM_START+__DSTACK_SIZE)
                 
0001c9 940c 020b 	JMP  _main
                 
                 	.ESEG
                 	.ORG 0
                 
                 	.DSEG
                 	.ORG 0x160
                 
                 	.CSEG
                 ;/*******************************************************
                 ;Date    : 2/8/2021
                 ;Author  :  Mohmmad Javad Adel
                 ;*******************************************************/
                 ;#include <mega16.h>
                 	#ifndef __SLEEP_DEFINED__
                 	#define __SLEEP_DEFINED__
                 	.EQU __se_bit=0x40
                 	.EQU __sm_mask=0xB0
                 	.EQU __sm_powerdown=0x20
                 	.EQU __sm_powersave=0x30
                 	.EQU __sm_standby=0xA0
                 	.EQU __sm_ext_standby=0xB0
                 	.EQU __sm_adc_noise_red=0x10
                 	.SET power_ctrl_reg=mcucr
                 	#endif
                 ;#include <delay.h>
                 ;#include <glcd.h>
                 ;#include <font5x7.h>
                 ;#include <stdio.h>
                 ;#include <stdlib.h>
                 ;
                 ;eeprom int counter=0;
                 ;eeprom char temprature[128];
                 ;
                 ;void plot(void);
                 ;void mean(void);
                 ;
                 ;#define DATA_REGISTER_EMPTY (1<<UDRE)
                 ;#define RX_COMPLETE (1<<RXC)
                 ;#define FRAMING_ERROR (1<<FE)
                 ;#define PARITY_ERROR (1<<UPE)
                 ;#define DATA_OVERRUN (1<<DOR)
                 ;#define TX_BUFFER_SIZE 8
                 ;char tx_buffer[TX_BUFFER_SIZE];
                 ;#if TX_BUFFER_SIZE <= 256
                 ;unsigned char tx_wr_index=0,tx_rd_index=0;
                 ;#else
                 ;unsigned int tx_wr_index=0,tx_rd_index=0;
                 ;#endif
                 ;#if TX_BUFFER_SIZE < 256
                 ;unsigned char tx_counter=0;
                 ;#else
                 ;unsigned int tx_counter=0;
                 ;#endif
                 ;
                 ;interrupt [USART_TXC] void usart_tx_isr(void)
                 ; 0000 0025 {
                 
                 	.CSEG
                 _usart_tx_isr:
                 ; .FSTART _usart_tx_isr
0001cb 93ea      	ST   -Y,R30
0001cc 93fa      	ST   -Y,R31
0001cd b7ef      	IN   R30,SREG
0001ce 93ea      	ST   -Y,R30
                 ; 0000 0026 if (tx_counter)
0001cf 2077      	TST  R7
0001d0 f061      	BREQ _0x3
                 ; 0000 0027    {
                 ; 0000 0028    --tx_counter;
0001d1 947a      	DEC  R7
                 ; 0000 0029    UDR=tx_buffer[tx_rd_index++];
0001d2 2de4      	MOV  R30,R4
0001d3 9443      	INC  R4
0001d4 e0f0      	LDI  R31,0
0001d5 5eef      	SUBI R30,LOW(-_tx_buffer)
0001d6 4ffd      	SBCI R31,HIGH(-_tx_buffer)
0001d7 81e0      	LD   R30,Z
0001d8 b9ec      	OUT  0xC,R30
                 ; 0000 002A #if TX_BUFFER_SIZE != 256
                 ; 0000 002B    if (tx_rd_index == TX_BUFFER_SIZE) tx_rd_index=0;
0001d9 e0e8      	LDI  R30,LOW(8)
0001da 15e4      	CP   R30,R4
0001db f409      	BRNE _0x4
0001dc 2444      	CLR  R4
                 ; 0000 002C #endif
                 ; 0000 002D    }
                 _0x4:
                 ; 0000 002E }
                 _0x3:
0001dd 91e9      	LD   R30,Y+
0001de bfef      	OUT  SREG,R30
0001df 91f9      	LD   R31,Y+
0001e0 91e9      	LD   R30,Y+
0001e1 9518      	RETI
                 ; .FEND
                 ;
                 ;#ifndef _DEBUG_TERMINAL_IO_
                 ;#define _ALTERNATE_PUTCHAR_
                 ;#pragma used+
                 ;void putchar(char c)
                 ; 0000 0034 {
                 _putchar:
                 ; .FSTART _putchar
                 ; 0000 0035 while (tx_counter == TX_BUFFER_SIZE);
0001e2 93aa      	ST   -Y,R26
                 ;	c -> Y+0
                 _0x5:
0001e3 e0e8      	LDI  R30,LOW(8)
0001e4 15e7      	CP   R30,R7
0001e5 f3e9      	BREQ _0x5
                 ; 0000 0036 #asm("cli")
0001e6 94f8      	cli
                 ; 0000 0037 if (tx_counter || ((UCSRA & DATA_REGISTER_EMPTY)==0))
0001e7 2077      	TST  R7
0001e8 f411      	BRNE _0x9
0001e9 995d      	SBIC 0xB,5
0001ea c00d      	RJMP _0x8
                 _0x9:
                 ; 0000 0038    {
                 ; 0000 0039    tx_buffer[tx_wr_index++]=c;
0001eb 2de5      	MOV  R30,R5
0001ec 9453      	INC  R5
0001ed e0f0      	LDI  R31,0
0001ee 5eef      	SUBI R30,LOW(-_tx_buffer)
0001ef 4ffd      	SBCI R31,HIGH(-_tx_buffer)
0001f0 81a8      	LD   R26,Y
0001f1 83a0      	STD  Z+0,R26
                 ; 0000 003A #if TX_BUFFER_SIZE != 256
                 ; 0000 003B    if (tx_wr_index == TX_BUFFER_SIZE) tx_wr_index=0;
0001f2 e0e8      	LDI  R30,LOW(8)
0001f3 15e5      	CP   R30,R5
0001f4 f409      	BRNE _0xB
0001f5 2455      	CLR  R5
                 ; 0000 003C #endif
                 ; 0000 003D    ++tx_counter;
                 _0xB:
0001f6 9473      	INC  R7
                 ; 0000 003E    }
                 ; 0000 003F else
0001f7 c002      	RJMP _0xC
                 _0x8:
                 ; 0000 0040    UDR=c;
0001f8 81e8      	LD   R30,Y
0001f9 b9ec      	OUT  0xC,R30
                 ; 0000 0041 #asm("sei")
                 _0xC:
0001fa 9478      	sei
                 ; 0000 0042 }
0001fb 940c 0457 	JMP  _0x2120011
                 ; .FEND
                 ;#pragma used-
                 ;#endif
                 ;
                 ;#define ADC_VREF_TYPE ((0<<REFS1) | (0<<REFS0) | (0<<ADLAR))
                 ;unsigned int read_adc(unsigned char adc_input)
                 ; 0000 0048 {
                 _read_adc:
                 ; .FSTART _read_adc
                 ; 0000 0049 ADMUX=adc_input | ADC_VREF_TYPE;
0001fd 93aa      	ST   -Y,R26
                 ;	adc_input -> Y+0
0001fe 81e8      	LD   R30,Y
0001ff b9e7      	OUT  0x7,R30
                 ; 0000 004A // Delay needed for the stabilization of the ADC input voltage
                 ; 0000 004B delay_us(10);
                +
000200 e18b     +LDI R24 , LOW ( 27 )
                +__DELAY_USB_LOOP :
000201 958a     +DEC R24
000202 f7f1     +BRNE __DELAY_USB_LOOP
                 	__DELAY_USB 27
                 ; 0000 004C // Start the AD conversion
                 ; 0000 004D ADCSRA|=(1<<ADSC);
000203 9a36      	SBI  0x6,6
                 ; 0000 004E // Wait for the AD conversion to complete
                 ; 0000 004F while ((ADCSRA & (1<<ADIF))==0);
                 _0xD:
000204 9b34      	SBIS 0x6,4
000205 cffe      	RJMP _0xD
                 ; 0000 0050 ADCSRA|=(1<<ADIF);
000206 9a34      	SBI  0x6,4
                 ; 0000 0051 return ADCW;
000207 b1e4      	IN   R30,0x4
000208 b1f5      	IN   R31,0x4+1
000209 940c 0457 	JMP  _0x2120011
                 ; 0000 0052 }
                 ; .FEND
                 ;
                 ;void main(void)
                 ; 0000 0055 {
                 _main:
                 ; .FSTART _main
                 ; 0000 0056 int i=0;
                 ; 0000 0057 float temp=0.0;
                 ; 0000 0058 char send[10],buffer[16];
                 ; 0000 0059 
                 ; 0000 005A GLCDINIT_t glcd_init_data;
                 ; 0000 005B DDRA=(0<<DDA7) | (0<<DDA6) | (0<<DDA5) | (0<<DDA4) | (0<<DDA3) | (0<<DDA2) | (0<<DDA1) | (0<<DDA0);
00020b 97a4      	SBIW R28,36
00020c e0e0      	LDI  R30,LOW(0)
00020d a3e8      	STD  Y+32,R30
00020e a3e9      	STD  Y+33,R30
00020f a3ea      	STD  Y+34,R30
000210 a3eb      	STD  Y+35,R30
                 ;	i -> R16,R17
                 ;	temp -> Y+32
                 ;	send -> Y+22
                 ;	buffer -> Y+6
                 ;	glcd_init_data -> Y+0
                +
000211 e000     +LDI R16 , LOW ( 0 )
000212 e010     +LDI R17 , HIGH ( 0 )
                 	__GETWRN 16,17,0
000213 bbea      	OUT  0x1A,R30
                 ; 0000 005C PORTA=(0<<PORTA7) | (0<<PORTA6) | (0<<PORTA5) | (0<<PORTA4) | (0<<PORTA3) | (0<<PORTA2) | (0<<PORTA1) | (0<<PORTA0);
000214 bbeb      	OUT  0x1B,R30
                 ; 0000 005D DDRB=(0<<DDB7) | (0<<DDB6) | (0<<DDB5) | (0<<DDB4) | (0<<DDB3) | (0<<DDB2) | (0<<DDB1) | (0<<DDB0);
000215 bbe7      	OUT  0x17,R30
                 ; 0000 005E PORTB=(0<<PORTB7) | (0<<PORTB6) | (0<<PORTB5) | (0<<PORTB4) | (0<<PORTB3) | (0<<PORTB2) | (0<<PORTB1) | (0<<PORTB0);
000216 bbe8      	OUT  0x18,R30
                 ; 0000 005F DDRC=(0<<DDC7) | (0<<DDC6) | (0<<DDC5) | (0<<DDC4) | (0<<DDC3) | (0<<DDC2) | (0<<DDC1) | (0<<DDC0);
000217 bbe4      	OUT  0x14,R30
                 ; 0000 0060 PORTC=(0<<PORTC7) | (0<<PORTC6) | (0<<PORTC5) | (0<<PORTC4) | (0<<PORTC3) | (0<<PORTC2) | (0<<PORTC1) | (0<<PORTC0);
000218 bbe5      	OUT  0x15,R30
                 ; 0000 0061 DDRD=(0<<DDD7) | (0<<DDD6) | (0<<DDD5) | (0<<DDD4) | (0<<DDD3) | (0<<DDD2) | (0<<DDD1) | (0<<DDD0);
000219 bbe1      	OUT  0x11,R30
                 ; 0000 0062 PORTD=(0<<PORTD7) | (0<<PORTD6) | (0<<PORTD5) | (1<<PORTD4) | (1<<PORTD3) | (1<<PORTD2) | (0<<PORTD1) | (0<<PORTD0);
00021a e1ec      	LDI  R30,LOW(28)
00021b bbe2      	OUT  0x12,R30
                 ; 0000 0063 TCCR0=(0<<WGM00) | (0<<COM01) | (0<<COM00) | (0<<WGM01) | (0<<CS02) | (0<<CS01) | (0<<CS00);
00021c e0e0      	LDI  R30,LOW(0)
00021d bfe3      	OUT  0x33,R30
                 ; 0000 0064 TCNT0=0x00;
00021e bfe2      	OUT  0x32,R30
                 ; 0000 0065 OCR0=0x00;
00021f bfec      	OUT  0x3C,R30
                 ; 0000 0066 TCCR1A=(0<<COM1A1) | (0<<COM1A0) | (0<<COM1B1) | (0<<COM1B0) | (0<<WGM11) | (0<<WGM10);
000220 bdef      	OUT  0x2F,R30
                 ; 0000 0067 TCCR1B=(0<<ICNC1) | (0<<ICES1) | (0<<WGM13) | (0<<WGM12) | (0<<CS12) | (0<<CS11) | (0<<CS10);
000221 bdee      	OUT  0x2E,R30
                 ; 0000 0068 TCNT1H=0x00;
000222 bded      	OUT  0x2D,R30
                 ; 0000 0069 TCNT1L=0x00;
000223 bdec      	OUT  0x2C,R30
                 ; 0000 006A ICR1H=0x00;
000224 bde7      	OUT  0x27,R30
                 ; 0000 006B ICR1L=0x00;
000225 bde6      	OUT  0x26,R30
                 ; 0000 006C OCR1AH=0x00;
000226 bdeb      	OUT  0x2B,R30
                 ; 0000 006D OCR1AL=0x00;
000227 bdea      	OUT  0x2A,R30
                 ; 0000 006E OCR1BH=0x00;
000228 bde9      	OUT  0x29,R30
                 ; 0000 006F OCR1BL=0x00;
000229 bde8      	OUT  0x28,R30
                 ; 0000 0070 ASSR=0<<AS2;
00022a bde2      	OUT  0x22,R30
                 ; 0000 0071 TCCR2=(0<<PWM2) | (0<<COM21) | (0<<COM20) | (0<<CTC2) | (0<<CS22) | (0<<CS21) | (0<<CS20);
00022b bde5      	OUT  0x25,R30
                 ; 0000 0072 TCNT2=0x00;
00022c bde4      	OUT  0x24,R30
                 ; 0000 0073 OCR2=0x00;
00022d bde3      	OUT  0x23,R30
                 ; 0000 0074 TIMSK=(0<<OCIE2) | (0<<TOIE2) | (0<<TICIE1) | (0<<OCIE1A) | (0<<OCIE1B) | (0<<TOIE1) | (0<<OCIE0) | (0<<TOIE0);
00022e bfe9      	OUT  0x39,R30
                 ; 0000 0075 MCUCR=(0<<ISC11) | (0<<ISC10) | (0<<ISC01) | (0<<ISC00);
00022f bfe5      	OUT  0x35,R30
                 ; 0000 0076 MCUCSR=(0<<ISC2);
000230 bfe4      	OUT  0x34,R30
                 ; 0000 0077 // USART initialization
                 ; 0000 0078 // Communication Parameters: 8 Data, 1 Stop, No Parity
                 ; 0000 0079 // USART Receiver: Off
                 ; 0000 007A // USART Transmitter: On
                 ; 0000 007B // USART Mode: Asynchronous
                 ; 0000 007C // USART Baud Rate: 9600
                 ; 0000 007D UCSRA=(0<<RXC) | (0<<TXC) | (0<<UDRE) | (0<<FE) | (0<<DOR) | (0<<UPE) | (0<<U2X) | (0<<MPCM);
000231 b9eb      	OUT  0xB,R30
                 ; 0000 007E UCSRB=(0<<RXCIE) | (1<<TXCIE) | (0<<UDRIE) | (0<<RXEN) | (1<<TXEN) | (0<<UCSZ2) | (0<<RXB8) | (0<<TXB8);
000232 e4e8      	LDI  R30,LOW(72)
000233 b9ea      	OUT  0xA,R30
                 ; 0000 007F UCSRC=(1<<URSEL) | (0<<UMSEL) | (0<<UPM1) | (0<<UPM0) | (0<<USBS) | (1<<UCSZ1) | (1<<UCSZ0) | (0<<UCPOL);
000234 e8e6      	LDI  R30,LOW(134)
000235 bde0      	OUT  0x20,R30
                 ; 0000 0080 UBRRH=0x00;
000236 e0e0      	LDI  R30,LOW(0)
000237 bde0      	OUT  0x20,R30
                 ; 0000 0081 UBRRL=0x33;
000238 e3e3      	LDI  R30,LOW(51)
000239 b9e9      	OUT  0x9,R30
                 ; 0000 0082 
                 ; 0000 0083 ACSR=(1<<ACD) | (0<<ACBG) | (0<<ACO) | (0<<ACI) | (0<<ACIE) | (0<<ACIC) | (0<<ACIS1) | (0<<ACIS0);
00023a e8e0      	LDI  R30,LOW(128)
00023b b9e8      	OUT  0x8,R30
                 ; 0000 0084 // ADC initialization
                 ; 0000 0085 // ADC Clock frequency: 125.000 kHz
                 ; 0000 0086 // ADC Voltage Reference: AREF pin
                 ; 0000 0087 // ADC Auto Trigger Source: ADC Stopped
                 ; 0000 0088 ADMUX=ADC_VREF_TYPE;
00023c e0e0      	LDI  R30,LOW(0)
00023d b9e7      	OUT  0x7,R30
                 ; 0000 0089 ADCSRA=(1<<ADEN) | (0<<ADSC) | (0<<ADATE) | (0<<ADIF) | (0<<ADIE) | (1<<ADPS2) | (1<<ADPS1) | (0<<ADPS0);
00023e e8e6      	LDI  R30,LOW(134)
00023f b9e6      	OUT  0x6,R30
                 ; 0000 008A SFIOR=(0<<ADTS2) | (0<<ADTS1) | (0<<ADTS0);
000240 e0e0      	LDI  R30,LOW(0)
000241 bfe0      	OUT  0x30,R30
                 ; 0000 008B 
                 ; 0000 008C SPCR=(0<<SPIE) | (0<<SPE) | (0<<DORD) | (0<<MSTR) | (0<<CPOL) | (0<<CPHA) | (0<<SPR1) | (0<<SPR0);
000242 b9ed      	OUT  0xD,R30
                 ; 0000 008D TWCR=(0<<TWEA) | (0<<TWSTA) | (0<<TWSTO) | (0<<TWEN) | (0<<TWIE);
000243 bfe6      	OUT  0x36,R30
                 ; 0000 008E // Graphic Display Controller initialization
                 ; 0000 008F // The KS0108 connections are specified in the
                 ; 0000 0090 // Project|Configure|C Compiler|Libraries|Graphic Display menu:
                 ; 0000 0091 // DB0 - PORTB Bit 0
                 ; 0000 0092 // DB1 - PORTB Bit 1
                 ; 0000 0093 // DB2 - PORTB Bit 2
                 ; 0000 0094 // DB3 - PORTB Bit 3
                 ; 0000 0095 // DB4 - PORTB Bit 4
                 ; 0000 0096 // DB5 - PORTB Bit 5
                 ; 0000 0097 // DB6 - PORTB Bit 6
                 ; 0000 0098 // DB7 - PORTB Bit 7
                 ; 0000 0099 // E - PORTC Bit 0
                 ; 0000 009A // RD /WR - PORTC Bit 1
                 ; 0000 009B // RS - PORTC Bit 2
                 ; 0000 009C // /RST - PORTC Bit 3
                 ; 0000 009D // CS1 - PORTC Bit 4
                 ; 0000 009E // CS2 - PORTC Bit 5
                 ; 0000 009F glcd_init_data.font=font5x7;
000244 e5e4      	LDI  R30,LOW(_font5x7*2)
000245 e0f0      	LDI  R31,HIGH(_font5x7*2)
000246 83e8      	ST   Y,R30
000247 83f9      	STD  Y+1,R31
                 ; 0000 00A0 glcd_init_data.readxmem=NULL;
000248 e0e0      	LDI  R30,LOW(0)
000249 83ea      	STD  Y+2,R30
00024a 83eb      	STD  Y+2+1,R30
                 ; 0000 00A1 glcd_init_data.writexmem=NULL;
00024b 83ec      	STD  Y+4,R30
00024c 83ed      	STD  Y+4+1,R30
                 ; 0000 00A2 glcd_init(&glcd_init_data);
00024d 01de      	MOVW R26,R28
00024e d21d      	RCALL _glcd_init
                 ; 0000 00A3 #asm("sei")
00024f 9478      	sei
                 ; 0000 00A4 glcd_clear();
000250 940e 04d0 	CALL _glcd_clear
                 ; 0000 00A5 glcd_outtextxy(40,20,"WELCOME!");
000252 e2e8      	LDI  R30,LOW(40)
000253 93ea      	ST   -Y,R30
000254 e1e4      	LDI  R30,LOW(20)
000255 93ea      	ST   -Y,R30
                +
000256 e6a0     +LDI R26 , LOW ( _0x10 + ( 0 ) )
000257 e0b1     +LDI R27 , HIGH ( _0x10 + ( 0 ) )
                 	__POINTW2MN _0x10,0
000258 940e 085f 	CALL _glcd_outtextxy
                 ; 0000 00A6 for(i=0;i<10;i++) {
                +
00025a e000     +LDI R16 , LOW ( 0 )
00025b e010     +LDI R17 , HIGH ( 0 )
                 	__GETWRN 16,17,0
                 _0x12:
                +
00025c 300a     +CPI R16 , LOW ( 10 )
00025d e0e0     +LDI R30 , HIGH ( 10 )
00025e 071e     +CPC R17 , R30
                 	__CPWRN 16,17,10
00025f f4ac      	BRGE _0x13
                 ; 0000 00A7    delay_ms(10);
000260 e0aa      	LDI  R26,LOW(10)
000261 e0b0      	LDI  R27,0
000262 940e 1405 	CALL _delay_ms
                 ; 0000 00A8    glcd_bar(10+10*i, 40, 20+10*i, 50);
000264 e0aa      	LDI  R26,LOW(10)
000265 020a      	MULS R16,R26
000266 01f0      	MOVW R30,R0
000267 01df      	MOVW R26,R30
000268 5fe6      	SUBI R30,-LOW(10)
000269 93ea      	ST   -Y,R30
00026a e2e8      	LDI  R30,LOW(40)
00026b 93ea      	ST   -Y,R30
00026c 01fd      	MOVW R30,R26
00026d 5eec      	SUBI R30,-LOW(20)
00026e 93ea      	ST   -Y,R30
00026f e3a2      	LDI  R26,LOW(50)
000270 940e 0c5a 	CALL _glcd_bar
                 ; 0000 00A9 }
                +
000272 5f0f     +SUBI R16 , LOW ( - 1 )
000273 4f1f     +SBCI R17 , HIGH ( - 1 )
                 	__ADDWRN 16,17,1
000274 cfe7      	RJMP _0x12
                 _0x13:
                 ; 0000 00AA glcd_clear();
000275 940e 117d 	CALL SUBOPT_0x0
                 ; 0000 00AB glcd_rectround(2,2,124,60, 5);
                 ; 0000 00AC glcd_outtextxy(15,5,"TEMPRATURE  NOW:");
                +
000277 e6a9     +LDI R26 , LOW ( _0x10 + ( 9 ) )
000278 e0b1     +LDI R27 , HIGH ( _0x10 + ( 9 ) )
                 	__POINTW2MN _0x10,9
000279 940e 118e 	CALL SUBOPT_0x1
                 ; 0000 00AD glcd_circle(32,43,15);
                 ; 0000 00AE glcd_outtextxy(21,40,"PLOT");
                +
00027b e7aa     +LDI R26 , LOW ( _0x10 + ( 26 ) )
00027c e0b1     +LDI R27 , HIGH ( _0x10 + ( 26 ) )
                 	__POINTW2MN _0x10,26
00027d 940e 119c 	CALL SUBOPT_0x2
                 ; 0000 00AF glcd_circle(95,43,15);
                 ; 0000 00B0 glcd_outtextxy(83,40,"INFO");
                +
00027f e7af     +LDI R26 , LOW ( _0x10 + ( 31 ) )
000280 e0b1     +LDI R27 , HIGH ( _0x10 + ( 31 ) )
                 	__POINTW2MN _0x10,31
000281 940e 085f 	CALL _glcd_outtextxy
                 ; 0000 00B1 delay_ms(100);
000283 e6a4      	LDI  R26,LOW(100)
000284 e0b0      	LDI  R27,0
000285 940e 1405 	CALL _delay_ms
                 ; 0000 00B2 while (1)
                 _0x14:
                 ; 0000 00B3       {
                 ; 0000 00B4         temp = read_adc(0);
000287 e0a0      	LDI  R26,LOW(0)
000288 df74      	RCALL _read_adc
000289 2766      	CLR  R22
00028a 2777      	CLR  R23
00028b 940e 147b 	CALL __CDF1
                +
00028d a3e8     +STD Y + 32 , R30
00028e a3f9     +STD Y + 32 + 1 , R31
00028f a36a     +STD Y + 32 + 2 , R22
000290 a37b     +STD Y + 32 + 3 , R23
                 	__PUTD1S 32
                 ; 0000 00B5         temprature[counter]=(temp-4)/4;
000291 940e 11aa 	CALL SUBOPT_0x3
000293 5fee      	SUBI R30,LOW(-_temprature)
000294 4fff      	SBCI R31,HIGH(-_temprature)
000295 93ff      	PUSH R31
000296 93ef      	PUSH R30
                +
000297 a1e8     +LDD R30 , Y + 32
000298 a1f9     +LDD R31 , Y + 32 + 1
000299 a16a     +LDD R22 , Y + 32 + 2
00029a a17b     +LDD R23 , Y + 32 + 3
                 	__GETD1S 32
00029b 940e 11af 	CALL SUBOPT_0x4
00029d 91af      	POP  R26
00029e 91bf      	POP  R27
00029f 940e 1442 	CALL __CFD1U
0002a1 940e 1691 	CALL __EEPROMWRB
                 ; 0000 00B6         counter++;
0002a3 940e 11aa 	CALL SUBOPT_0x3
0002a5 9631      	ADIW R30,1
0002a6 940e 1689 	CALL __EEPROMWRW
                 ; 0000 00B7         if(counter>128){counter=0;}
0002a8 940e 11aa 	CALL SUBOPT_0x3
0002aa 38e1      	CPI  R30,LOW(0x81)
0002ab e0a0      	LDI  R26,HIGH(0x81)
0002ac 07fa      	CPC  R31,R26
0002ad f034      	BRLT _0x17
0002ae e0a0      	LDI  R26,LOW(_counter)
0002af e0b0      	LDI  R27,HIGH(_counter)
0002b0 e0e0      	LDI  R30,LOW(0)
0002b1 e0f0      	LDI  R31,HIGH(0)
0002b2 940e 1689 	CALL __EEPROMWRW
                 ; 0000 00B8         sprintf(buffer,"-->%-5.2f<--",(temp-4)/4);
                 _0x17:
0002b4 01fe      	MOVW R30,R28
0002b5 9636      	ADIW R30,6
0002b6 93fa      	ST   -Y,R31
0002b7 93ea      	ST   -Y,R30
                +
0002b8 e6ea     +LDI R30 , LOW ( 2 * _0x0 + ( 36 ) )
0002b9 e0f2     +LDI R31 , HIGH ( 2 * _0x0 + ( 36 ) )
                 	__POINTW1FN _0x0,36
0002ba 940e 11be 	CALL SUBOPT_0x5
0002bc 940e 11c5 	CALL SUBOPT_0x6
                 ; 0000 00B9         glcd_outtextxy(33,15,buffer);
0002be e2e1      	LDI  R30,LOW(33)
0002bf 93ea      	ST   -Y,R30
0002c0 e0ef      	LDI  R30,LOW(15)
0002c1 93ea      	ST   -Y,R30
0002c2 01de      	MOVW R26,R28
0002c3 9618      	ADIW R26,8
0002c4 940e 085f 	CALL _glcd_outtextxy
                 ; 0000 00BA         if(PIND.2==0){ while(PIND.2==0); plot(); }
0002c6 9982      	SBIC 0x10,2
0002c7 c003      	RJMP _0x18
                 _0x19:
0002c8 9b82      	SBIS 0x10,2
0002c9 cffe      	RJMP _0x19
0002ca d038      	RCALL _plot
                 ; 0000 00BB         if(PIND.4==0){ while(PIND.4==0); mean(); }
                 _0x18:
0002cb 9984      	SBIC 0x10,4
0002cc c003      	RJMP _0x1C
                 _0x1D:
0002cd 9b84      	SBIS 0x10,4
0002ce cffe      	RJMP _0x1D
0002cf d081      	RCALL _mean
                 ; 0000 00BC         sprintf(send,"zZ%05.2f CXx",(temp-4)/4);
                 _0x1C:
0002d0 01fe      	MOVW R30,R28
0002d1 9676      	ADIW R30,22
0002d2 93fa      	ST   -Y,R31
0002d3 93ea      	ST   -Y,R30
                +
0002d4 e7e7     +LDI R30 , LOW ( 2 * _0x0 + ( 49 ) )
0002d5 e0f2     +LDI R31 , HIGH ( 2 * _0x0 + ( 49 ) )
                 	__POINTW1FN _0x0,49
0002d6 940e 11be 	CALL SUBOPT_0x5
0002d8 940e 11c5 	CALL SUBOPT_0x6
                 ; 0000 00BD         for(i=0;i<10;i++)
                +
0002da e000     +LDI R16 , LOW ( 0 )
0002db e010     +LDI R17 , HIGH ( 0 )
                 	__GETWRN 16,17,0
                 _0x21:
                +
0002dc 300a     +CPI R16 , LOW ( 10 )
0002dd e0e0     +LDI R30 , HIGH ( 10 )
0002de 071e     +CPC R17 , R30
                 	__CPWRN 16,17,10
0002df f44c      	BRGE _0x22
                 ; 0000 00BE         {
                 ; 0000 00BF                 putchar(send[i]);
0002e0 01de      	MOVW R26,R28
0002e1 9656      	ADIW R26,22
0002e2 0fa0      	ADD  R26,R16
0002e3 1fb1      	ADC  R27,R17
0002e4 91ac      	LD   R26,X
0002e5 defc      	RCALL _putchar
                 ; 0000 00C0         }
                +
0002e6 5f0f     +SUBI R16 , LOW ( - 1 )
0002e7 4f1f     +SBCI R17 , HIGH ( - 1 )
                 	__ADDWRN 16,17,1
0002e8 cff3      	RJMP _0x21
                 _0x22:
                 ; 0000 00C1         if(PIND.2==0){ while(PIND.2==0); plot(); }
0002e9 9982      	SBIC 0x10,2
0002ea c003      	RJMP _0x23
                 _0x24:
0002eb 9b82      	SBIS 0x10,2
0002ec cffe      	RJMP _0x24
0002ed d015      	RCALL _plot
                 ; 0000 00C2         if(PIND.4==0){ while(PIND.4==0); mean(); }
                 _0x23:
0002ee 9984      	SBIC 0x10,4
0002ef c003      	RJMP _0x27
                 _0x28:
0002f0 9b84      	SBIS 0x10,4
0002f1 cffe      	RJMP _0x28
0002f2 d05e      	RCALL _mean
                 ; 0000 00C3         delay_ms(125);
                 _0x27:
0002f3 e7ad      	LDI  R26,LOW(125)
0002f4 e0b0      	LDI  R27,0
0002f5 940e 1405 	CALL _delay_ms
                 ; 0000 00C4         if(PIND.2==0){ while(PIND.2==0); plot(); }
0002f7 9982      	SBIC 0x10,2
0002f8 c003      	RJMP _0x2B
                 _0x2C:
0002f9 9b82      	SBIS 0x10,2
0002fa cffe      	RJMP _0x2C
0002fb d007      	RCALL _plot
                 ; 0000 00C5         if(PIND.4==0){ while(PIND.4==0); mean(); }
                 _0x2B:
0002fc 9984      	SBIC 0x10,4
0002fd c003      	RJMP _0x2F
                 _0x30:
0002fe 9b84      	SBIS 0x10,4
0002ff cffe      	RJMP _0x30
000300 d050      	RCALL _mean
                 ; 0000 00C6       }
                 _0x2F:
000301 cf85      	RJMP _0x14
                 ; 0000 00C7 }
                 _0x33:
000302 cfff      	RJMP _0x33
                 ; .FEND
                 
                 	.DSEG
                 _0x10:
000160           	.BYTE 0x24
                 ;
                 ;
                 ;void plot(void){
                 ; 0000 00CA void plot(void){
                 
                 	.CSEG
                 _plot:
                 ; .FSTART _plot
                 ; 0000 00CB int i=0;
                 ; 0000 00CC glcd_clear();
000303 940e 11cc 	CALL SUBOPT_0x7
                 ;	i -> R16,R17
                 ; 0000 00CD glcd_rectround(0,0,128,64, 0);
000305 e0e0      	LDI  R30,LOW(0)
000306 93ea      	ST   -Y,R30
000307 93ea      	ST   -Y,R30
000308 e8e0      	LDI  R30,LOW(128)
000309 93ea      	ST   -Y,R30
00030a e4e0      	LDI  R30,LOW(64)
00030b 93ea      	ST   -Y,R30
00030c e0a0      	LDI  R26,LOW(0)
00030d 940e 09bd 	CALL _glcd_rectround
                 ; 0000 00CE for(i = 1; i<counter;i++){
                +
00030f e001     +LDI R16 , LOW ( 1 )
000310 e010     +LDI R17 , HIGH ( 1 )
                 	__GETWRN 16,17,1
                 _0x35:
000311 940e 11aa 	CALL SUBOPT_0x3
000313 170e      	CP   R16,R30
000314 071f      	CPC  R17,R31
000315 f4bc      	BRGE _0x36
                 ; 0000 00CF     glcd_line(i-1,64-temprature[i-1],i,64-temprature[i]);
000316 2fe0      	MOV  R30,R16
000317 50e1      	SUBI R30,LOW(1)
000318 93ea      	ST   -Y,R30
000319 01f8      	MOVW R30,R16
00031a 9731      	SBIW R30,1
00031b 5fee      	SUBI R30,LOW(-_temprature)
00031c 4fff      	SBCI R31,HIGH(-_temprature)
00031d 01df      	MOVW R26,R30
00031e 940e 167d 	CALL __EEPROMRDB
000320 e4a0      	LDI  R26,LOW(64)
000321 1bae      	SUB  R26,R30
000322 93aa      	ST   -Y,R26
000323 930a      	ST   -Y,R16
000324 940e 11d2 	CALL SUBOPT_0x8
000326 e4a0      	LDI  R26,LOW(64)
000327 1bae      	SUB  R26,R30
000328 940e 089c 	CALL _glcd_line
                 ; 0000 00D0 }
                +
00032a 5f0f     +SUBI R16 , LOW ( - 1 )
00032b 4f1f     +SBCI R17 , HIGH ( - 1 )
                 	__ADDWRN 16,17,1
00032c cfe4      	RJMP _0x35
                 _0x36:
                 ; 0000 00D1 glcd_circle(10,15,10);
00032d e0ea      	LDI  R30,LOW(10)
00032e 93ea      	ST   -Y,R30
00032f e0ef      	LDI  R30,LOW(15)
000330 93ea      	ST   -Y,R30
000331 e0aa      	LDI  R26,LOW(10)
000332 940e 0c10 	CALL _glcd_circle
                 ; 0000 00D2 glcd_outtextxy(5,13,"BK");
000334 e0e5      	LDI  R30,LOW(5)
000335 93ea      	ST   -Y,R30
000336 e0ed      	LDI  R30,LOW(13)
000337 93ea      	ST   -Y,R30
                +
000338 e8a4     +LDI R26 , LOW ( _0x37 + ( 0 ) )
000339 e0b1     +LDI R27 , HIGH ( _0x37 + ( 0 ) )
                 	__POINTW2MN _0x37,0
00033a 940e 085f 	CALL _glcd_outtextxy
                 ; 0000 00D3 while(PIND.3==1);
                 _0x38:
00033c 9983      	SBIC 0x10,3
00033d cffe      	RJMP _0x38
                 ; 0000 00D4 while(PIND.3==0);
                 _0x3B:
00033e 9b83      	SBIS 0x10,3
00033f cffe      	RJMP _0x3B
                 ; 0000 00D5 glcd_clear();
000340 940e 117d 	CALL SUBOPT_0x0
                 ; 0000 00D6 glcd_rectround(2,2,124,60, 5);
                 ; 0000 00D7 glcd_outtextxy(15,5,"TEMPRATURE  NOW:");
                +
000342 e8a7     +LDI R26 , LOW ( _0x37 + ( 3 ) )
000343 e0b1     +LDI R27 , HIGH ( _0x37 + ( 3 ) )
                 	__POINTW2MN _0x37,3
000344 940e 118e 	CALL SUBOPT_0x1
                 ; 0000 00D8 glcd_circle(32,43,15);
                 ; 0000 00D9 glcd_outtextxy(21,40,"PLOT");
                +
000346 e9a8     +LDI R26 , LOW ( _0x37 + ( 20 ) )
000347 e0b1     +LDI R27 , HIGH ( _0x37 + ( 20 ) )
                 	__POINTW2MN _0x37,20
000348 940e 119c 	CALL SUBOPT_0x2
                 ; 0000 00DA glcd_circle(95,43,15);
                 ; 0000 00DB glcd_outtextxy(83,40,"INFO");
                +
00034a e9ad     +LDI R26 , LOW ( _0x37 + ( 25 ) )
00034b e0b1     +LDI R27 , HIGH ( _0x37 + ( 25 ) )
                 	__POINTW2MN _0x37,25
00034c 940e 085f 	CALL _glcd_outtextxy
                 ; 0000 00DC }
00034e 9109      	LD   R16,Y+
00034f 9119      	LD   R17,Y+
000350 9508      	RET
                 ; .FEND
                 
                 	.DSEG
                 _0x37:
000184           	.BYTE 0x1E
                 ;
                 ;void mean(void){
                 ; 0000 00DE void mean(void){
                 
                 	.CSEG
                 _mean:
                 ; .FSTART _mean
                 ; 0000 00DF int i=0;
                 ; 0000 00E0 float show=0;
                 ; 0000 00E1 char buffer[20];
                 ; 0000 00E2 glcd_clear();
000351 9768      	SBIW R28,24
000352 e0e0      	LDI  R30,LOW(0)
000353 8bec      	STD  Y+20,R30
000354 8bed      	STD  Y+21,R30
000355 8bee      	STD  Y+22,R30
000356 8bef      	STD  Y+23,R30
000357 940e 11cc 	CALL SUBOPT_0x7
                 ;	i -> R16,R17
                 ;	show -> Y+22
                 ;	buffer -> Y+2
                 ; 0000 00E3 glcd_outtextxy(10,5,"AVERAGE TEMPRATURE:");
000359 e0ea      	LDI  R30,LOW(10)
00035a 93ea      	ST   -Y,R30
00035b e0e5      	LDI  R30,LOW(5)
00035c 93ea      	ST   -Y,R30
                +
00035d eaa2     +LDI R26 , LOW ( _0x3E + ( 0 ) )
00035e e0b1     +LDI R27 , HIGH ( _0x3E + ( 0 ) )
                 	__POINTW2MN _0x3E,0
00035f 940e 085f 	CALL _glcd_outtextxy
                 ; 0000 00E4 glcd_outtextxy(10,25,"MAX TEMPRATURE:");
000361 e0ea      	LDI  R30,LOW(10)
000362 93ea      	ST   -Y,R30
000363 e1e9      	LDI  R30,LOW(25)
000364 93ea      	ST   -Y,R30
                +
000365 eba6     +LDI R26 , LOW ( _0x3E + ( 20 ) )
000366 e0b1     +LDI R27 , HIGH ( _0x3E + ( 20 ) )
                 	__POINTW2MN _0x3E,20
000367 940e 085f 	CALL _glcd_outtextxy
                 ; 0000 00E5 glcd_outtextxy(10,45,"MIN TEMPRATURE:");
000369 e0ea      	LDI  R30,LOW(10)
00036a 93ea      	ST   -Y,R30
00036b e2ed      	LDI  R30,LOW(45)
00036c 93ea      	ST   -Y,R30
                +
00036d eca6     +LDI R26 , LOW ( _0x3E + ( 36 ) )
00036e e0b1     +LDI R27 , HIGH ( _0x3E + ( 36 ) )
                 	__POINTW2MN _0x3E,36
00036f 940e 085f 	CALL _glcd_outtextxy
                 ; 0000 00E6 for(i=0;i<counter;i++){
                +
000371 e000     +LDI R16 , LOW ( 0 )
000372 e010     +LDI R17 , HIGH ( 0 )
                 	__GETWRN 16,17,0
                 _0x40:
000373 940e 11aa 	CALL SUBOPT_0x3
000375 170e      	CP   R16,R30
000376 071f      	CPC  R17,R31
000377 f464      	BRGE _0x41
                 ; 0000 00E7 show = show + temprature[i];
000378 940e 11d2 	CALL SUBOPT_0x8
00037a e0f0      	LDI  R31,0
00037b 940e 11d9 	CALL SUBOPT_0x9
00037d 940e 14b5 	CALL __ADDF12
00037f 940e 11e2 	CALL SUBOPT_0xA
                 ; 0000 00E8 }
                +
000381 5f0f     +SUBI R16 , LOW ( - 1 )
000382 4f1f     +SBCI R17 , HIGH ( - 1 )
                 	__ADDWRN 16,17,1
000383 cfef      	RJMP _0x40
                 _0x41:
                 ; 0000 00E9 show = show / counter ;
000384 940e 11aa 	CALL SUBOPT_0x3
000386 940e 11d9 	CALL SUBOPT_0x9
000388 940e 1553 	CALL __DIVF21
00038a 940e 11e2 	CALL SUBOPT_0xA
                 ; 0000 00EA sprintf(buffer,"%-5.2f",show);
00038c 940e 11e7 	CALL SUBOPT_0xB
                 ; 0000 00EB glcd_outtextxy(20,15,buffer);
00038e e1e4      	LDI  R30,LOW(20)
00038f 93ea      	ST   -Y,R30
000390 e0ef      	LDI  R30,LOW(15)
000391 940e 11f4 	CALL SUBOPT_0xC
                 ; 0000 00EC show = temprature[0];
                 ; 0000 00ED for(i=1;i<counter;i++){
                 _0x43:
000393 940e 11aa 	CALL SUBOPT_0x3
000395 170e      	CP   R16,R30
000396 071f      	CPC  R17,R31
000397 f474      	BRGE _0x44
                 ; 0000 00EE if(show <= temprature[i]){ show = temprature[i]; }
000398 940e 11d2 	CALL SUBOPT_0x8
00039a 940e 1206 	CALL SUBOPT_0xD
00039c f011      	BREQ PC+3
00039d f008      	BRCS PC+2
00039e c004      	RJMP _0x45
00039f 940e 11d2 	CALL SUBOPT_0x8
0003a1 940e 1212 	CALL SUBOPT_0xE
                 ; 0000 00EF }
                 _0x45:
                +
0003a3 5f0f     +SUBI R16 , LOW ( - 1 )
0003a4 4f1f     +SBCI R17 , HIGH ( - 1 )
                 	__ADDWRN 16,17,1
0003a5 cfed      	RJMP _0x43
                 _0x44:
                 ; 0000 00F0 sprintf(buffer,"%-5.2f",show);
0003a6 940e 11e7 	CALL SUBOPT_0xB
                 ; 0000 00F1 glcd_outtextxy(20,35,buffer);
0003a8 e1e4      	LDI  R30,LOW(20)
0003a9 93ea      	ST   -Y,R30
0003aa e2e3      	LDI  R30,LOW(35)
0003ab 940e 11f4 	CALL SUBOPT_0xC
                 ; 0000 00F2 show = temprature[0];
                 ; 0000 00F3 for(i=1;i<counter;i++){
                 _0x47:
0003ad 940e 11aa 	CALL SUBOPT_0x3
0003af 170e      	CP   R16,R30
0003b0 071f      	CPC  R17,R31
0003b1 f464      	BRGE _0x48
                 ; 0000 00F4 if(show >= temprature[i]){ show = temprature[i]; }
0003b2 940e 11d2 	CALL SUBOPT_0x8
0003b4 940e 1206 	CALL SUBOPT_0xD
0003b6 f020      	BRLO _0x49
0003b7 940e 11d2 	CALL SUBOPT_0x8
0003b9 940e 1212 	CALL SUBOPT_0xE
                 ; 0000 00F5 }
                 _0x49:
                +
0003bb 5f0f     +SUBI R16 , LOW ( - 1 )
0003bc 4f1f     +SBCI R17 , HIGH ( - 1 )
                 	__ADDWRN 16,17,1
0003bd cfef      	RJMP _0x47
                 _0x48:
                 ; 0000 00F6 sprintf(buffer,"%-5.2f",show);
0003be 940e 11e7 	CALL SUBOPT_0xB
                 ; 0000 00F7 glcd_outtextxy(20,55,buffer);
0003c0 e1e4      	LDI  R30,LOW(20)
0003c1 93ea      	ST   -Y,R30
0003c2 e3e7      	LDI  R30,LOW(55)
0003c3 93ea      	ST   -Y,R30
0003c4 01de      	MOVW R26,R28
0003c5 9614      	ADIW R26,4
0003c6 940e 085f 	CALL _glcd_outtextxy
                 ; 0000 00F8 glcd_circle(110,50,10);
0003c8 e6ee      	LDI  R30,LOW(110)
0003c9 93ea      	ST   -Y,R30
0003ca e3e2      	LDI  R30,LOW(50)
0003cb 93ea      	ST   -Y,R30
0003cc e0aa      	LDI  R26,LOW(10)
0003cd 940e 0c10 	CALL _glcd_circle
                 ; 0000 00F9 glcd_outtextxy(105,48,"BK");
0003cf e6e9      	LDI  R30,LOW(105)
0003d0 93ea      	ST   -Y,R30
0003d1 e3e0      	LDI  R30,LOW(48)
0003d2 93ea      	ST   -Y,R30
                +
0003d3 eda6     +LDI R26 , LOW ( _0x3E + ( 52 ) )
0003d4 e0b1     +LDI R27 , HIGH ( _0x3E + ( 52 ) )
                 	__POINTW2MN _0x3E,52
0003d5 940e 085f 	CALL _glcd_outtextxy
                 ; 0000 00FA while(PIND.3==1);
                 _0x4A:
0003d7 9983      	SBIC 0x10,3
0003d8 cffe      	RJMP _0x4A
                 ; 0000 00FB while(PIND.3==0);
                 _0x4D:
0003d9 9b83      	SBIS 0x10,3
0003da cffe      	RJMP _0x4D
                 ; 0000 00FC glcd_clear();
0003db 940e 117d 	CALL SUBOPT_0x0
                 ; 0000 00FD glcd_rectround(2,2,124,60, 5);
                 ; 0000 00FE glcd_outtextxy(15,5,"TEMPRATURE  NOW:");
                +
0003dd eda9     +LDI R26 , LOW ( _0x3E + ( 55 ) )
0003de e0b1     +LDI R27 , HIGH ( _0x3E + ( 55 ) )
                 	__POINTW2MN _0x3E,55
0003df 940e 118e 	CALL SUBOPT_0x1
                 ; 0000 00FF glcd_circle(32,43,15);
                 ; 0000 0100 glcd_outtextxy(21,40,"PLOT");
                +
0003e1 eeaa     +LDI R26 , LOW ( _0x3E + ( 72 ) )
0003e2 e0b1     +LDI R27 , HIGH ( _0x3E + ( 72 ) )
                 	__POINTW2MN _0x3E,72
0003e3 940e 119c 	CALL SUBOPT_0x2
                 ; 0000 0101 glcd_circle(95,43,15);
                 ; 0000 0102 glcd_outtextxy(83,40,"INFO");
                +
0003e5 eeaf     +LDI R26 , LOW ( _0x3E + ( 77 ) )
0003e6 e0b1     +LDI R27 , HIGH ( _0x3E + ( 77 ) )
                 	__POINTW2MN _0x3E,77
0003e7 940e 085f 	CALL _glcd_outtextxy
                 ; 0000 0103 }
0003e9 8119      	LDD  R17,Y+1
0003ea 8108      	LDD  R16,Y+0
0003eb 966a      	ADIW R28,26
0003ec 9508      	RET
                 ; .FEND
                 
                 	.DSEG
                 _0x3E:
0001a2           	.BYTE 0x52
                 ;
                 ;
                 	#ifndef __SLEEP_DEFINED__
                 	#endif
                 
                 	.CSEG
                 _ks0108_enable_G100:
                 ; .FSTART _ks0108_enable_G100
0003ed 0000      	nop
0003ee 9aa8      	SBI  0x15,0
0003ef 0000      	nop
0003f0 9508      	RET
                 ; .FEND
                 _ks0108_disable_G100:
                 ; .FSTART _ks0108_disable_G100
0003f1 98a8      	CBI  0x15,0
0003f2 98ac      	CBI  0x15,4
0003f3 98ad      	CBI  0x15,5
0003f4 9508      	RET
                 ; .FEND
                 _ks0108_rdbus_G100:
                 ; .FSTART _ks0108_rdbus_G100
0003f5 931a      	ST   -Y,R17
0003f6 dff6      	RCALL _ks0108_enable_G100
0003f7 b316      	IN   R17,22
0003f8 98a8      	CBI  0x15,0
0003f9 2fe1      	MOV  R30,R17
0003fa 9119      	LD   R17,Y+
0003fb 9508      	RET
                 ; .FEND
                 _ks0108_busy_G100:
                 ; .FSTART _ks0108_busy_G100
0003fc 93aa      	ST   -Y,R26
0003fd 931a      	ST   -Y,R17
0003fe e0e0      	LDI  R30,LOW(0)
0003ff bbe7      	OUT  0x17,R30
000400 9aa9      	SBI  0x15,1
000401 98aa      	CBI  0x15,2
000402 81e9      	LDD  R30,Y+1
000403 5fef      	SUBI R30,-LOW(1)
000404 2f1e      	MOV  R17,R30
000405 ff10      	SBRS R17,0
000406 c002      	RJMP _0x2000003
000407 9aac      	SBI  0x15,4
000408 c001      	RJMP _0x2000004
                 _0x2000003:
000409 98ac      	CBI  0x15,4
                 _0x2000004:
00040a ff11      	SBRS R17,1
00040b c002      	RJMP _0x2000005
00040c 9aad      	SBI  0x15,5
00040d c001      	RJMP _0x2000006
                 _0x2000005:
00040e 98ad      	CBI  0x15,5
                 _0x2000006:
                 _0x2000007:
00040f dfe5      	RCALL _ks0108_rdbus_G100
000410 78e0      	ANDI R30,LOW(0x80)
000411 f7e9      	BRNE _0x2000007
000412 8118      	LDD  R17,Y+0
000413 c486      	RJMP _0x212000C
                 ; .FEND
                 _ks0108_wrcmd_G100:
                 ; .FSTART _ks0108_wrcmd_G100
000414 93aa      	ST   -Y,R26
000415 81a9      	LDD  R26,Y+1
000416 dfe5      	RCALL _ks0108_busy_G100
000417 940e 1218 	CALL SUBOPT_0xF
000419 c480      	RJMP _0x212000C
                 ; .FEND
                 _ks0108_setloc_G100:
                 ; .FSTART _ks0108_setloc_G100
                +
00041a 91e0 021a+LDS R30 , _ks0108_coord_G100 + ( 1 )
                 	__GETB1MN _ks0108_coord_G100,1
00041c 93ea      	ST   -Y,R30
00041d 91e0 0219 	LDS  R30,_ks0108_coord_G100
00041f 73ef      	ANDI R30,LOW(0x3F)
000420 64e0      	ORI  R30,0x40
000421 2fae      	MOV  R26,R30
000422 dff1      	RCALL _ks0108_wrcmd_G100
                +
000423 91e0 021a+LDS R30 , _ks0108_coord_G100 + ( 1 )
                 	__GETB1MN _ks0108_coord_G100,1
000425 93ea      	ST   -Y,R30
                +
000426 91e0 021b+LDS R30 , _ks0108_coord_G100 + ( 2 )
                 	__GETB1MN _ks0108_coord_G100,2
000428 6be8      	ORI  R30,LOW(0xB8)
000429 2fae      	MOV  R26,R30
00042a dfe9      	RCALL _ks0108_wrcmd_G100
00042b 9508      	RET
                 ; .FEND
                 _ks0108_gotoxp_G100:
                 ; .FSTART _ks0108_gotoxp_G100
00042c 93aa      	ST   -Y,R26
00042d 81e9      	LDD  R30,Y+1
00042e 93e0 0219 	STS  _ks0108_coord_G100,R30
000430 95e2      	SWAP R30
000431 70ef      	ANDI R30,0xF
000432 95e6      	LSR  R30
000433 95e6      	LSR  R30
                +
000434 93e0 021a+STS _ks0108_coord_G100 + ( 1 ) , R30
                 	__PUTB1MN _ks0108_coord_G100,1
000436 81e8      	LD   R30,Y
                +
000437 93e0 021b+STS _ks0108_coord_G100 + ( 2 ) , R30
                 	__PUTB1MN _ks0108_coord_G100,2
000439 dfe0      	RCALL _ks0108_setloc_G100
00043a c45f      	RJMP _0x212000C
                 ; .FEND
                 _ks0108_nextx_G100:
                 ; .FSTART _ks0108_nextx_G100
00043b 91a0 0219 	LDS  R26,_ks0108_coord_G100
00043d 5faf      	SUBI R26,-LOW(1)
00043e 93a0 0219 	STS  _ks0108_coord_G100,R26
000440 38a0      	CPI  R26,LOW(0x80)
000441 f018      	BRLO _0x200000A
000442 e0e0      	LDI  R30,LOW(0)
000443 93e0 0219 	STS  _ks0108_coord_G100,R30
                 _0x200000A:
000445 91e0 0219 	LDS  R30,_ks0108_coord_G100
000447 73ef      	ANDI R30,LOW(0x3F)
000448 f431      	BRNE _0x200000B
000449 91e0 0219 	LDS  R30,_ks0108_coord_G100
00044b 93ea      	ST   -Y,R30
                +
00044c 91a0 021b+LDS R26 , _ks0108_coord_G100 + ( 2 )
                 	__GETB2MN _ks0108_coord_G100,2
00044e dfdd      	RCALL _ks0108_gotoxp_G100
                 _0x200000B:
00044f 9508      	RET
                 ; .FEND
                 _ks0108_wrdata_G100:
                 ; .FSTART _ks0108_wrdata_G100
000450 93aa      	ST   -Y,R26
                +
000451 91a0 021a+LDS R26 , _ks0108_coord_G100 + ( 1 )
                 	__GETB2MN _ks0108_coord_G100,1
000453 dfa8      	RCALL _ks0108_busy_G100
000454 9aaa      	SBI  0x15,2
000455 940e 1218 	CALL SUBOPT_0xF
                 _0x2120011:
000457 9621      	ADIW R28,1
000458 9508      	RET
                 ; .FEND
                 _ks0108_rddata_G100:
                 ; .FSTART _ks0108_rddata_G100
                +
000459 91a0 021a+LDS R26 , _ks0108_coord_G100 + ( 1 )
                 	__GETB2MN _ks0108_coord_G100,1
00045b dfa0      	RCALL _ks0108_busy_G100
00045c e0e0      	LDI  R30,LOW(0)
00045d bbe7      	OUT  0x17,R30
00045e 9aa9      	SBI  0x15,1
00045f 9aaa      	SBI  0x15,2
000460 df94      	RCALL _ks0108_rdbus_G100
000461 9508      	RET
                 ; .FEND
                 _ks0108_rdbyte_G100:
                 ; .FSTART _ks0108_rdbyte_G100
000462 93aa      	ST   -Y,R26
000463 81e9      	LDD  R30,Y+1
000464 93ea      	ST   -Y,R30
000465 81e9      	LDD  R30,Y+1
000466 940e 1221 	CALL SUBOPT_0x10
000468 dff0      	RCALL _ks0108_rddata_G100
000469 dfb0      	RCALL _ks0108_setloc_G100
00046a dfee      	RCALL _ks0108_rddata_G100
00046b c42e      	RJMP _0x212000C
                 ; .FEND
                 _glcd_init:
                 ; .FSTART _glcd_init
00046c 93ba      	ST   -Y,R27
00046d 93aa      	ST   -Y,R26
00046e 931a      	ST   -Y,R17
00046f 9aa0      	SBI  0x14,0
000470 9aa1      	SBI  0x14,1
000471 9aa2      	SBI  0x14,2
000472 9aa3      	SBI  0x14,3
000473 9aab      	SBI  0x15,3
000474 9aa4      	SBI  0x14,4
000475 9aa5      	SBI  0x14,5
000476 df7a      	RCALL _ks0108_disable_G100
000477 98ab      	CBI  0x15,3
000478 e6a4      	LDI  R26,LOW(100)
000479 e0b0      	LDI  R27,0
00047a 940e 1405 	CALL _delay_ms
00047c 9aab      	SBI  0x15,3
00047d e010      	LDI  R17,LOW(0)
                 _0x200000C:
00047e 3012      	CPI  R17,2
00047f f440      	BRSH _0x200000E
000480 931a      	ST   -Y,R17
000481 e3af      	LDI  R26,LOW(63)
000482 df91      	RCALL _ks0108_wrcmd_G100
000483 931a      	ST   -Y,R17
000484 9513      	INC  R17
000485 eca0      	LDI  R26,LOW(192)
000486 df8d      	RCALL _ks0108_wrcmd_G100
000487 cff6      	RJMP _0x200000C
                 _0x200000E:
000488 e0e1      	LDI  R30,LOW(1)
000489 93e0 01f4 	STS  _glcd_state,R30
00048b e0e0      	LDI  R30,LOW(0)
                +
00048c 93e0 01f5+STS _glcd_state + ( 1 ) , R30
                 	__PUTB1MN _glcd_state,1
00048e 81e9      	LDD  R30,Y+1
00048f 81fa      	LDD  R31,Y+1+1
000490 9730      	SBIW R30,0
000491 f0a9      	BREQ _0x200000F
000492 81a9      	LDD  R26,Y+1
000493 81ba      	LDD  R27,Y+1+1
000494 940e 1649 	CALL __GETW1P
                +
000496 93e0 01f8+STS _glcd_state + ( 4 ) , R30
000498 93f0 01f9+STS _glcd_state + ( 4 ) + 1 , R31
                 	__PUTW1MN _glcd_state,4
00049a 9612      	ADIW R26,2
00049b 940e 1649 	CALL __GETW1P
                +
00049d 93e0 020d+STS _glcd_state + ( 25 ) , R30
00049f 93f0 020e+STS _glcd_state + ( 25 ) + 1 , R31
                 	__PUTW1MN _glcd_state,25
0004a1 81a9      	LDD  R26,Y+1
0004a2 81ba      	LDD  R27,Y+1+1
0004a3 9614      	ADIW R26,4
0004a4 940e 1649 	CALL __GETW1P
0004a6 c00a      	RJMP _0x20000AC
                 _0x200000F:
0004a7 e0e0      	LDI  R30,LOW(0)
0004a8 e0f0      	LDI  R31,HIGH(0)
                +
0004a9 93e0 01f8+STS _glcd_state + ( 4 ) , R30
0004ab 93f0 01f9+STS _glcd_state + ( 4 ) + 1 , R31
                 	__PUTW1MN _glcd_state,4
                +
0004ad 93e0 020d+STS _glcd_state + ( 25 ) , R30
0004af 93f0 020e+STS _glcd_state + ( 25 ) + 1 , R31
                 	__PUTW1MN _glcd_state,25
                 _0x20000AC:
                +
0004b1 93e0 020f+STS _glcd_state + ( 27 ) , R30
0004b3 93f0 0210+STS _glcd_state + ( 27 ) + 1 , R31
                 	__PUTW1MN _glcd_state,27
0004b5 e0e1      	LDI  R30,LOW(1)
                +
0004b6 93e0 01fa+STS _glcd_state + ( 6 ) , R30
                 	__PUTB1MN _glcd_state,6
                +
0004b8 93e0 01fb+STS _glcd_state + ( 7 ) , R30
                 	__PUTB1MN _glcd_state,7
                +
0004ba 93e0 01fc+STS _glcd_state + ( 8 ) , R30
                 	__PUTB1MN _glcd_state,8
0004bc efef      	LDI  R30,LOW(255)
                +
0004bd 93e0 01fd+STS _glcd_state + ( 9 ) , R30
                 	__PUTB1MN _glcd_state,9
0004bf e0e1      	LDI  R30,LOW(1)
                +
0004c0 93e0 0204+STS _glcd_state + ( 16 ) , R30
                 	__PUTB1MN _glcd_state,16
                +
0004c2 e0e5     +LDI R30 , LOW ( _glcd_state + ( 17 ) )
0004c3 e0f2     +LDI R31 , HIGH ( _glcd_state + ( 17 ) )
                 	__POINTW1MN _glcd_state,17
0004c4 93fa      	ST   -Y,R31
0004c5 93ea      	ST   -Y,R30
0004c6 efef      	LDI  R30,LOW(255)
0004c7 93ea      	ST   -Y,R30
0004c8 e0a8      	LDI  R26,LOW(8)
0004c9 e0b0      	LDI  R27,0
0004ca 940e 108e 	CALL _memset
0004cc d003      	RCALL _glcd_clear
0004cd e0e1      	LDI  R30,LOW(1)
0004ce 8118      	LDD  R17,Y+0
0004cf c3bd      	RJMP _0x212000D
                 ; .FEND
                 _glcd_clear:
                 ; .FSTART _glcd_clear
0004d0 940e 16ac 	CALL __SAVELOCR4
0004d2 e000      	LDI  R16,0
0004d3 e030      	LDI  R19,0
                +
0004d4 91e0 01f5+LDS R30 , _glcd_state + ( 1 )
                 	__GETB1MN _glcd_state,1
0004d6 30e0      	CPI  R30,0
0004d7 f009      	BREQ _0x2000015
0004d8 ef0f      	LDI  R16,LOW(255)
                 _0x2000015:
                 _0x2000016:
0004d9 3038      	CPI  R19,8
0004da f478      	BRSH _0x2000018
0004db e0e0      	LDI  R30,LOW(0)
0004dc 93ea      	ST   -Y,R30
0004dd 2fa3      	MOV  R26,R19
0004de 5f3f      	SUBI R19,-1
0004df df4c      	RCALL _ks0108_gotoxp_G100
0004e0 e010      	LDI  R17,LOW(0)
                 _0x2000019:
0004e1 2fa1      	MOV  R26,R17
0004e2 5f1f      	SUBI R17,-1
0004e3 38a0      	CPI  R26,LOW(0x80)
0004e4 f420      	BRSH _0x200001B
0004e5 2fa0      	MOV  R26,R16
0004e6 940e 1227 	CALL SUBOPT_0x11
0004e8 cff8      	RJMP _0x2000019
                 _0x200001B:
0004e9 cfef      	RJMP _0x2000016
                 _0x2000018:
0004ea e0e0      	LDI  R30,LOW(0)
0004eb 93ea      	ST   -Y,R30
0004ec e0a0      	LDI  R26,LOW(0)
0004ed df3e      	RCALL _ks0108_gotoxp_G100
0004ee e0e0      	LDI  R30,LOW(0)
0004ef 93ea      	ST   -Y,R30
0004f0 e0a0      	LDI  R26,LOW(0)
0004f1 d39d      	RCALL _glcd_moveto
0004f2 940e 16b3 	CALL __LOADLOCR4
0004f4 9624      	ADIW R28,4
0004f5 9508      	RET
                 ; .FEND
                 _glcd_putpixel:
                 ; .FSTART _glcd_putpixel
0004f6 93aa      	ST   -Y,R26
0004f7 931a      	ST   -Y,R17
0004f8 930a      	ST   -Y,R16
0004f9 81ac      	LDD  R26,Y+4
0004fa 38a0      	CPI  R26,LOW(0x80)
0004fb f418      	BRSH _0x200001D
0004fc 81ab      	LDD  R26,Y+3
0004fd 34a0      	CPI  R26,LOW(0x40)
0004fe f018      	BRLO _0x200001C
                 _0x200001D:
0004ff 8119      	LDD  R17,Y+1
000500 8108      	LDD  R16,Y+0
000501 c370      	RJMP _0x212000E
                 _0x200001C:
000502 81ec      	LDD  R30,Y+4
000503 93ea      	ST   -Y,R30
000504 81ac      	LDD  R26,Y+4
000505 df5c      	RCALL _ks0108_rdbyte_G100
000506 2f1e      	MOV  R17,R30
000507 df12      	RCALL _ks0108_setloc_G100
000508 81eb      	LDD  R30,Y+3
000509 70e7      	ANDI R30,LOW(0x7)
00050a e0a1      	LDI  R26,LOW(1)
00050b 940e 15c8 	CALL __LSLB12
00050d 2f0e      	MOV  R16,R30
00050e 81ea      	LDD  R30,Y+2
00050f 30e0      	CPI  R30,0
000510 f011      	BREQ _0x200001F
000511 2b10      	OR   R17,R16
000512 c003      	RJMP _0x2000020
                 _0x200001F:
000513 2fe0      	MOV  R30,R16
000514 95e0      	COM  R30
000515 231e      	AND  R17,R30
                 _0x2000020:
000516 2fa1      	MOV  R26,R17
000517 df38      	RCALL _ks0108_wrdata_G100
000518 8119      	LDD  R17,Y+1
000519 8108      	LDD  R16,Y+0
00051a c357      	RJMP _0x212000E
                 ; .FEND
                 _glcd_getpixel:
                 ; .FSTART _glcd_getpixel
00051b 93aa      	ST   -Y,R26
00051c 81a9      	LDD  R26,Y+1
00051d 38a0      	CPI  R26,LOW(0x80)
00051e f418      	BRSH _0x2000022
00051f 81a8      	LD   R26,Y
000520 34a0      	CPI  R26,LOW(0x40)
000521 f010      	BRLO _0x2000021
                 _0x2000022:
000522 e0e0      	LDI  R30,LOW(0)
000523 c376      	RJMP _0x212000C
                 _0x2000021:
000524 81e9      	LDD  R30,Y+1
000525 93ea      	ST   -Y,R30
000526 81a9      	LDD  R26,Y+1
000527 df3a      	RCALL _ks0108_rdbyte_G100
000528 2e1e      	MOV  R1,R30
000529 81e8      	LD   R30,Y
00052a 70e7      	ANDI R30,LOW(0x7)
00052b e0a1      	LDI  R26,LOW(1)
00052c 940e 15c8 	CALL __LSLB12
00052e 21e1      	AND  R30,R1
00052f f011      	BREQ _0x2000024
000530 e0e1      	LDI  R30,LOW(1)
000531 c001      	RJMP _0x2000025
                 _0x2000024:
000532 e0e0      	LDI  R30,LOW(0)
                 _0x2000025:
000533 c366      	RJMP _0x212000C
                 ; .FEND
                 _ks0108_wrmasked_G100:
                 ; .FSTART _ks0108_wrmasked_G100
000534 93aa      	ST   -Y,R26
000535 931a      	ST   -Y,R17
000536 81ed      	LDD  R30,Y+5
000537 93ea      	ST   -Y,R30
000538 81ad      	LDD  R26,Y+5
000539 df28      	RCALL _ks0108_rdbyte_G100
00053a 2f1e      	MOV  R17,R30
00053b dede      	RCALL _ks0108_setloc_G100
00053c 81e9      	LDD  R30,Y+1
00053d 30e7      	CPI  R30,LOW(0x7)
00053e f011      	BREQ _0x200002B
00053f 30e8      	CPI  R30,LOW(0x8)
000540 f439      	BRNE _0x200002C
                 _0x200002B:
000541 81eb      	LDD  R30,Y+3
000542 93ea      	ST   -Y,R30
000543 81aa      	LDD  R26,Y+2
000544 940e 10cf 	CALL _glcd_mappixcolor1bit
000546 83eb      	STD  Y+3,R30
000547 c008      	RJMP _0x200002D
                 _0x200002C:
000548 30e3      	CPI  R30,LOW(0x3)
000549 f421      	BRNE _0x200002F
00054a 81eb      	LDD  R30,Y+3
00054b 95e0      	COM  R30
00054c 83eb      	STD  Y+3,R30
00054d c002      	RJMP _0x2000030
                 _0x200002F:
00054e 30e0      	CPI  R30,0
00054f f421      	BRNE _0x2000031
                 _0x2000030:
                 _0x200002D:
000550 81ea      	LDD  R30,Y+2
000551 95e0      	COM  R30
000552 231e      	AND  R17,R30
000553 c002      	RJMP _0x2000032
                 _0x2000031:
000554 30e2      	CPI  R30,LOW(0x2)
000555 f429      	BRNE _0x2000033
                 _0x2000032:
000556 81ea      	LDD  R30,Y+2
000557 81ab      	LDD  R26,Y+3
000558 23ea      	AND  R30,R26
000559 2b1e      	OR   R17,R30
00055a c00e      	RJMP _0x2000029
                 _0x2000033:
00055b 30e1      	CPI  R30,LOW(0x1)
00055c f429      	BRNE _0x2000034
00055d 81ea      	LDD  R30,Y+2
00055e 81ab      	LDD  R26,Y+3
00055f 23ea      	AND  R30,R26
000560 271e      	EOR  R17,R30
000561 c007      	RJMP _0x2000029
                 _0x2000034:
000562 30e4      	CPI  R30,LOW(0x4)
000563 f429      	BRNE _0x2000029
000564 81ea      	LDD  R30,Y+2
000565 95e0      	COM  R30
000566 81ab      	LDD  R26,Y+3
000567 2bea      	OR   R30,R26
000568 231e      	AND  R17,R30
                 _0x2000029:
000569 2fa1      	MOV  R26,R17
00056a 940e 1227 	CALL SUBOPT_0x11
00056c 8118      	LDD  R17,Y+0
00056d 9626      	ADIW R28,6
00056e 9508      	RET
                 ; .FEND
                 _glcd_block:
                 ; .FSTART _glcd_block
00056f 93aa      	ST   -Y,R26
000570 9723      	SBIW R28,3
000571 940e 16aa 	CALL __SAVELOCR6
000573 89a8      	LDD  R26,Y+16
000574 38a0      	CPI  R26,LOW(0x80)
000575 f448      	BRSH _0x2000037
000576 85af      	LDD  R26,Y+15
000577 34a0      	CPI  R26,LOW(0x40)
000578 f430      	BRSH _0x2000037
000579 85ae      	LDD  R26,Y+14
00057a 30a0      	CPI  R26,LOW(0x0)
00057b f019      	BREQ _0x2000037
00057c 85ad      	LDD  R26,Y+13
00057d 30a0      	CPI  R26,LOW(0x0)
00057e f409      	BRNE _0x2000036
                 _0x2000037:
00057f c1c8      	RJMP _0x2120010
                 _0x2000036:
000580 85ee      	LDD  R30,Y+14
000581 87e8      	STD  Y+8,R30
000582 89a8      	LDD  R26,Y+16
000583 27bb      	CLR  R27
000584 85ee      	LDD  R30,Y+14
000585 e0f0      	LDI  R31,0
000586 0fae      	ADD  R26,R30
000587 1fbf      	ADC  R27,R31
000588 38a1      	CPI  R26,LOW(0x81)
000589 e0e0      	LDI  R30,HIGH(0x81)
00058a 07be      	CPC  R27,R30
00058b f020      	BRLO _0x2000039
00058c 89a8      	LDD  R26,Y+16
00058d e8e0      	LDI  R30,LOW(128)
00058e 1bea      	SUB  R30,R26
00058f 87ee      	STD  Y+14,R30
                 _0x2000039:
000590 852d      	LDD  R18,Y+13
000591 85af      	LDD  R26,Y+15
000592 27bb      	CLR  R27
000593 85ed      	LDD  R30,Y+13
000594 e0f0      	LDI  R31,0
000595 0fae      	ADD  R26,R30
000596 1fbf      	ADC  R27,R31
000597 34a1      	CPI  R26,LOW(0x41)
000598 e0e0      	LDI  R30,HIGH(0x41)
000599 07be      	CPC  R27,R30
00059a f020      	BRLO _0x200003A
00059b 85af      	LDD  R26,Y+15
00059c e4e0      	LDI  R30,LOW(64)
00059d 1bea      	SUB  R30,R26
00059e 87ed      	STD  Y+13,R30
                 _0x200003A:
00059f 85a9      	LDD  R26,Y+9
0005a0 30a6      	CPI  R26,LOW(0x6)
0005a1 f009      	BREQ PC+2
0005a2 c05b      	RJMP _0x200003B
0005a3 85ec      	LDD  R30,Y+12
0005a4 30e1      	CPI  R30,LOW(0x1)
0005a5 f409      	BRNE _0x200003F
0005a6 c1a1      	RJMP _0x2120010
                 _0x200003F:
0005a7 30e3      	CPI  R30,LOW(0x3)
0005a8 f439      	BRNE _0x2000042
                +
0005a9 91e0 020f+LDS R30 , _glcd_state + ( 27 )
0005ab 91f0 0210+LDS R31 , _glcd_state + ( 27 ) + 1
                 	__GETW1MN _glcd_state,27
0005ad 9730      	SBIW R30,0
0005ae f409      	BRNE _0x2000041
0005af c198      	RJMP _0x2120010
                 _0x2000041:
                 _0x2000042:
0005b0 8508      	LDD  R16,Y+8
0005b1 85ed      	LDD  R30,Y+13
0005b2 95e6      	LSR  R30
0005b3 95e6      	LSR  R30
0005b4 95e6      	LSR  R30
0005b5 2f3e      	MOV  R19,R30
0005b6 2fe2      	MOV  R30,R18
0005b7 70e7      	ANDI R30,LOW(0x7)
0005b8 f419      	BRNE _0x2000044
0005b9 85ad      	LDD  R26,Y+13
0005ba 172a      	CP   R18,R26
0005bb f0e9      	BREQ _0x2000043
                 _0x2000044:
0005bc 2fa0      	MOV  R26,R16
0005bd 27bb      	CLR  R27
0005be 2fe3      	MOV  R30,R19
0005bf e0f0      	LDI  R31,0
0005c0 940e 15ed 	CALL __MULW12U
0005c2 85aa      	LDD  R26,Y+10
0005c3 85bb      	LDD  R27,Y+10+1
0005c4 940e 122b 	CALL SUBOPT_0x12
0005c6 9526      	LSR  R18
0005c7 9526      	LSR  R18
0005c8 9526      	LSR  R18
0005c9 2f53      	MOV  R21,R19
                 _0x2000046:
0005ca 935f      	PUSH R21
0005cb 5f5f      	SUBI R21,-1
0005cc 2fe2      	MOV  R30,R18
0005cd 91af      	POP  R26
0005ce 17ea      	CP   R30,R26
0005cf f048      	BRLO _0x2000048
0005d0 2f10      	MOV  R17,R16
                 _0x2000049:
0005d1 2fe1      	MOV  R30,R17
0005d2 5011      	SUBI R17,1
0005d3 30e0      	CPI  R30,0
0005d4 f019      	BREQ _0x200004B
0005d5 940e 1230 	CALL SUBOPT_0x13
0005d7 cff9      	RJMP _0x2000049
                 _0x200004B:
0005d8 cff1      	RJMP _0x2000046
                 _0x2000048:
                 _0x2000043:
0005d9 85ae      	LDD  R26,Y+14
0005da 170a      	CP   R16,R26
0005db f111      	BREQ _0x200004C
0005dc 85ee      	LDD  R30,Y+14
0005dd 85aa      	LDD  R26,Y+10
0005de 85bb      	LDD  R27,Y+10+1
0005df e0f0      	LDI  R31,0
0005e0 940e 122b 	CALL SUBOPT_0x12
0005e2 85ed      	LDD  R30,Y+13
0005e3 70e7      	ANDI R30,LOW(0x7)
0005e4 f009      	BREQ _0x200004D
0005e5 5f3f      	SUBI R19,-LOW(1)
                 _0x200004D:
0005e6 e020      	LDI  R18,LOW(0)
                 _0x200004E:
0005e7 932f      	PUSH R18
0005e8 5f2f      	SUBI R18,-1
0005e9 2fe3      	MOV  R30,R19
0005ea 91af      	POP  R26
0005eb 17ae      	CP   R26,R30
0005ec f488      	BRSH _0x2000050
0005ed 851e      	LDD  R17,Y+14
                 _0x2000051:
0005ee 931f      	PUSH R17
0005ef 5f1f      	SUBI R17,-1
0005f0 2fe0      	MOV  R30,R16
0005f1 91af      	POP  R26
0005f2 17ae      	CP   R26,R30
0005f3 f418      	BRSH _0x2000053
0005f4 940e 1230 	CALL SUBOPT_0x13
0005f6 cff7      	RJMP _0x2000051
                 _0x2000053:
0005f7 85ee      	LDD  R30,Y+14
0005f8 81ae      	LDD  R26,Y+6
0005f9 81bf      	LDD  R27,Y+6+1
0005fa e0f0      	LDI  R31,0
0005fb 940e 122b 	CALL SUBOPT_0x12
0005fd cfe9      	RJMP _0x200004E
                 _0x2000050:
                 _0x200004C:
                 _0x200003B:
0005fe 85ef      	LDD  R30,Y+15
0005ff 70e7      	ANDI R30,LOW(0x7)
000600 2f3e      	MOV  R19,R30
                 _0x2000054:
000601 85ed      	LDD  R30,Y+13
000602 30e0      	CPI  R30,0
000603 f409      	BRNE PC+2
000604 c143      	RJMP _0x2000056
000605 85ea      	LDD  R30,Y+10
000606 85fb      	LDD  R31,Y+10+1
000607 83ee      	STD  Y+6,R30
000608 83ff      	STD  Y+6+1,R31
000609 e010      	LDI  R17,LOW(0)
00060a 8908      	LDD  R16,Y+16
00060b 3030      	CPI  R19,0
00060c f009      	BREQ PC+2
00060d c065      	RJMP _0x2000057
00060e 85ad      	LDD  R26,Y+13
00060f 30a8      	CPI  R26,LOW(0x8)
000610 f408      	BRSH PC+2
000611 c05c      	RJMP _0x2000058
000612 85e9      	LDD  R30,Y+9
000613 30e0      	CPI  R30,0
000614 f011      	BREQ _0x200005D
000615 30e3      	CPI  R30,LOW(0x3)
000616 f409      	BRNE _0x200005E
                 _0x200005D:
000617 c002      	RJMP _0x200005F
                 _0x200005E:
000618 30e7      	CPI  R30,LOW(0x7)
000619 f409      	BRNE _0x2000060
                 _0x200005F:
00061a c002      	RJMP _0x2000061
                 _0x2000060:
00061b 30e8      	CPI  R30,LOW(0x8)
00061c f409      	BRNE _0x2000062
                 _0x2000061:
00061d c002      	RJMP _0x2000063
                 _0x2000062:
00061e 30e6      	CPI  R30,LOW(0x6)
00061f f409      	BRNE _0x2000064
                 _0x2000063:
000620 c002      	RJMP _0x2000065
                 _0x2000064:
000621 30e9      	CPI  R30,LOW(0x9)
000622 f409      	BRNE _0x2000066
                 _0x2000065:
000623 c002      	RJMP _0x2000067
                 _0x2000066:
000624 30ea      	CPI  R30,LOW(0xA)
000625 f421      	BRNE _0x200005B
                 _0x2000067:
000626 930a      	ST   -Y,R16
000627 89e8      	LDD  R30,Y+16
000628 940e 1221 	CALL SUBOPT_0x10
                 _0x200005B:
                 _0x2000069:
00062a 931f      	PUSH R17
00062b 5f1f      	SUBI R17,-1
00062c 85ee      	LDD  R30,Y+14
00062d 91af      	POP  R26
00062e 17ae      	CP   R26,R30
00062f f5b8      	BRSH _0x200006B
000630 85a9      	LDD  R26,Y+9
000631 30a6      	CPI  R26,LOW(0x6)
000632 f461      	BRNE _0x200006C
000633 de25      	RCALL _ks0108_rddata_G100
000634 dde5      	RCALL _ks0108_setloc_G100
000635 940e 123d 	CALL SUBOPT_0x14
000637 93fa      	ST   -Y,R31
000638 93ea      	ST   -Y,R30
000639 de1f      	RCALL _ks0108_rddata_G100
00063a 2fae      	MOV  R26,R30
00063b 940e 1116 	CALL _glcd_writemem
00063d ddfd      	RCALL _ks0108_nextx_G100
00063e c027      	RJMP _0x200006D
                 _0x200006C:
00063f 85e9      	LDD  R30,Y+9
000640 30e9      	CPI  R30,LOW(0x9)
000641 f411      	BRNE _0x2000071
000642 e050      	LDI  R21,LOW(0)
000643 c00e      	RJMP _0x2000072
                 _0x2000071:
000644 30ea      	CPI  R30,LOW(0xA)
000645 f411      	BRNE _0x2000070
000646 ef5f      	LDI  R21,LOW(255)
000647 c00a      	RJMP _0x2000072
                 _0x2000070:
000648 940e 123d 	CALL SUBOPT_0x14
00064a 940e 1246 	CALL SUBOPT_0x15
00064c 2f5e      	MOV  R21,R30
00064d 85e9      	LDD  R30,Y+9
00064e 30e7      	CPI  R30,LOW(0x7)
00064f f011      	BREQ _0x2000079
000650 30e8      	CPI  R30,LOW(0x8)
000651 f421      	BRNE _0x200007A
                 _0x2000079:
                 _0x2000072:
000652 940e 124c 	CALL SUBOPT_0x16
000654 2f5e      	MOV  R21,R30
000655 c006      	RJMP _0x200007B
                 _0x200007A:
000656 30e3      	CPI  R30,LOW(0x3)
000657 f411      	BRNE _0x200007D
000658 9550      	COM  R21
000659 c002      	RJMP _0x200007E
                 _0x200007D:
00065a 30e0      	CPI  R30,0
00065b f421      	BRNE _0x2000080
                 _0x200007E:
                 _0x200007B:
00065c 2fa5      	MOV  R26,R21
00065d 940e 1227 	CALL SUBOPT_0x11
00065f c006      	RJMP _0x2000077
                 _0x2000080:
000660 940e 1250 	CALL SUBOPT_0x17
000662 efef      	LDI  R30,LOW(255)
000663 93ea      	ST   -Y,R30
000664 85ad      	LDD  R26,Y+13
000665 dece      	RCALL _ks0108_wrmasked_G100
                 _0x2000077:
                 _0x200006D:
000666 cfc3      	RJMP _0x2000069
                 _0x200006B:
000667 85ef      	LDD  R30,Y+15
000668 5fe8      	SUBI R30,-LOW(8)
000669 87ef      	STD  Y+15,R30
00066a 85ed      	LDD  R30,Y+13
00066b 50e8      	SUBI R30,LOW(8)
00066c 87ed      	STD  Y+13,R30
00066d c0d1      	RJMP _0x2000081
                 _0x2000058:
00066e 855d      	LDD  R21,Y+13
00066f e020      	LDI  R18,LOW(0)
000670 e0e0      	LDI  R30,LOW(0)
000671 87ed      	STD  Y+13,R30
000672 c07a      	RJMP _0x2000082
                 _0x2000057:
000673 2fe3      	MOV  R30,R19
000674 85ad      	LDD  R26,Y+13
000675 0fae      	ADD  R26,R30
000676 30a9      	CPI  R26,LOW(0x9)
000677 f420      	BRSH _0x2000083
000678 852d      	LDD  R18,Y+13
000679 e0e0      	LDI  R30,LOW(0)
00067a 87ed      	STD  Y+13,R30
00067b c003      	RJMP _0x2000084
                 _0x2000083:
00067c e0e8      	LDI  R30,LOW(8)
00067d 1be3      	SUB  R30,R19
00067e 2f2e      	MOV  R18,R30
                 _0x2000084:
00067f 933a      	ST   -Y,R19
000680 2fa2      	MOV  R26,R18
000681 940e 10c4 	CALL _glcd_getmask
000683 2f4e      	MOV  R20,R30
000684 85e9      	LDD  R30,Y+9
000685 30e6      	CPI  R30,LOW(0x6)
000686 f4f1      	BRNE _0x2000088
                 _0x2000089:
000687 931f      	PUSH R17
000688 5f1f      	SUBI R17,-1
000689 85ee      	LDD  R30,Y+14
00068a 91af      	POP  R26
00068b 17ae      	CP   R26,R30
00068c f4b8      	BRSH _0x200008B
00068d 940e 1256 	CALL SUBOPT_0x18
00068f 2fae      	MOV  R26,R30
000690 2fe3      	MOV  R30,R19
000691 940e 15d0 	CALL __LSRB12
000693 940e 125d 	CALL SUBOPT_0x19
000695 2fe3      	MOV  R30,R19
000696 2fa4      	MOV  R26,R20
000697 940e 15d0 	CALL __LSRB12
000699 95e0      	COM  R30
00069a 21e1      	AND  R30,R1
00069b 2b5e      	OR   R21,R30
00069c 940e 123d 	CALL SUBOPT_0x14
00069e 93fa      	ST   -Y,R31
00069f 93ea      	ST   -Y,R30
0006a0 2fa5      	MOV  R26,R21
0006a1 940e 1116 	CALL _glcd_writemem
0006a3 cfe3      	RJMP _0x2000089
                 _0x200008B:
0006a4 c02c      	RJMP _0x2000087
                 _0x2000088:
0006a5 30e9      	CPI  R30,LOW(0x9)
0006a6 f411      	BRNE _0x200008C
0006a7 e050      	LDI  R21,LOW(0)
0006a8 c003      	RJMP _0x200008D
                 _0x200008C:
0006a9 30ea      	CPI  R30,LOW(0xA)
0006aa f4a9      	BRNE _0x2000093
0006ab ef5f      	LDI  R21,LOW(255)
                 _0x200008D:
0006ac 940e 124c 	CALL SUBOPT_0x16
0006ae 2fae      	MOV  R26,R30
0006af 2fe3      	MOV  R30,R19
0006b0 940e 15c8 	CALL __LSLB12
0006b2 2f5e      	MOV  R21,R30
                 _0x2000090:
0006b3 931f      	PUSH R17
0006b4 5f1f      	SUBI R17,-1
0006b5 85ee      	LDD  R30,Y+14
0006b6 91af      	POP  R26
0006b7 17ae      	CP   R26,R30
0006b8 f430      	BRSH _0x2000092
0006b9 940e 1250 	CALL SUBOPT_0x17
0006bb 934a      	ST   -Y,R20
0006bc e0a0      	LDI  R26,LOW(0)
0006bd de76      	RCALL _ks0108_wrmasked_G100
0006be cff4      	RJMP _0x2000090
                 _0x2000092:
0006bf c011      	RJMP _0x2000087
                 _0x2000093:
                 _0x2000094:
0006c0 931f      	PUSH R17
0006c1 5f1f      	SUBI R17,-1
0006c2 85ee      	LDD  R30,Y+14
0006c3 91af      	POP  R26
0006c4 17ae      	CP   R26,R30
0006c5 f458      	BRSH _0x2000096
0006c6 940e 1268 	CALL SUBOPT_0x1A
0006c8 2fae      	MOV  R26,R30
0006c9 2fe3      	MOV  R30,R19
0006ca 940e 15c8 	CALL __LSLB12
0006cc 93ea      	ST   -Y,R30
0006cd 934a      	ST   -Y,R20
0006ce 85ad      	LDD  R26,Y+13
0006cf de64      	RCALL _ks0108_wrmasked_G100
0006d0 cfef      	RJMP _0x2000094
                 _0x2000096:
                 _0x2000087:
0006d1 85ed      	LDD  R30,Y+13
0006d2 30e0      	CPI  R30,0
0006d3 f409      	BRNE _0x2000097
0006d4 c073      	RJMP _0x2000056
                 _0x2000097:
0006d5 85ad      	LDD  R26,Y+13
0006d6 30a8      	CPI  R26,LOW(0x8)
0006d7 f428      	BRSH _0x2000098
0006d8 85ed      	LDD  R30,Y+13
0006d9 1be2      	SUB  R30,R18
0006da 2f5e      	MOV  R21,R30
0006db e0e0      	LDI  R30,LOW(0)
0006dc c003      	RJMP _0x20000AD
                 _0x2000098:
0006dd 2f53      	MOV  R21,R19
0006de 85ed      	LDD  R30,Y+13
0006df 50e8      	SUBI R30,LOW(8)
                 _0x20000AD:
0006e0 87ed      	STD  Y+13,R30
0006e1 e010      	LDI  R17,LOW(0)
0006e2 85ef      	LDD  R30,Y+15
0006e3 5fe8      	SUBI R30,-LOW(8)
0006e4 87ef      	STD  Y+15,R30
0006e5 e0e8      	LDI  R30,LOW(8)
0006e6 1be3      	SUB  R30,R19
0006e7 2f2e      	MOV  R18,R30
0006e8 8908      	LDD  R16,Y+16
0006e9 85ea      	LDD  R30,Y+10
0006ea 85fb      	LDD  R31,Y+10+1
0006eb 83ee      	STD  Y+6,R30
0006ec 83ff      	STD  Y+6+1,R31
                 _0x2000082:
0006ed 2fe5      	MOV  R30,R21
0006ee e0f0      	LDI  R31,0
0006ef 5ce8      	SUBI R30,LOW(-__glcd_mask*2)
0006f0 4ffd      	SBCI R31,HIGH(-__glcd_mask*2)
0006f1 9144      	LPM  R20,Z
0006f2 85e9      	LDD  R30,Y+9
0006f3 30e6      	CPI  R30,LOW(0x6)
0006f4 f4f1      	BRNE _0x200009D
                 _0x200009E:
0006f5 931f      	PUSH R17
0006f6 5f1f      	SUBI R17,-1
0006f7 85ee      	LDD  R30,Y+14
0006f8 91af      	POP  R26
0006f9 17ae      	CP   R26,R30
0006fa f4b8      	BRSH _0x20000A0
0006fb 940e 1256 	CALL SUBOPT_0x18
0006fd 2fae      	MOV  R26,R30
0006fe 2fe2      	MOV  R30,R18
0006ff 940e 15c8 	CALL __LSLB12
000701 940e 125d 	CALL SUBOPT_0x19
000703 2fe2      	MOV  R30,R18
000704 2fa4      	MOV  R26,R20
000705 940e 15c8 	CALL __LSLB12
000707 95e0      	COM  R30
000708 21e1      	AND  R30,R1
000709 2b5e      	OR   R21,R30
00070a 940e 123d 	CALL SUBOPT_0x14
00070c 93fa      	ST   -Y,R31
00070d 93ea      	ST   -Y,R30
00070e 2fa5      	MOV  R26,R21
00070f 940e 1116 	CALL _glcd_writemem
000711 cfe3      	RJMP _0x200009E
                 _0x20000A0:
000712 c02c      	RJMP _0x200009C
                 _0x200009D:
000713 30e9      	CPI  R30,LOW(0x9)
000714 f411      	BRNE _0x20000A1
000715 e050      	LDI  R21,LOW(0)
000716 c003      	RJMP _0x20000A2
                 _0x20000A1:
000717 30ea      	CPI  R30,LOW(0xA)
000718 f4a9      	BRNE _0x20000A8
000719 ef5f      	LDI  R21,LOW(255)
                 _0x20000A2:
00071a 940e 124c 	CALL SUBOPT_0x16
00071c 2fae      	MOV  R26,R30
00071d 2fe2      	MOV  R30,R18
00071e 940e 15d0 	CALL __LSRB12
000720 2f5e      	MOV  R21,R30
                 _0x20000A5:
000721 931f      	PUSH R17
000722 5f1f      	SUBI R17,-1
000723 85ee      	LDD  R30,Y+14
000724 91af      	POP  R26
000725 17ae      	CP   R26,R30
000726 f430      	BRSH _0x20000A7
000727 940e 1250 	CALL SUBOPT_0x17
000729 934a      	ST   -Y,R20
00072a e0a0      	LDI  R26,LOW(0)
00072b de08      	RCALL _ks0108_wrmasked_G100
00072c cff4      	RJMP _0x20000A5
                 _0x20000A7:
00072d c011      	RJMP _0x200009C
                 _0x20000A8:
                 _0x20000A9:
00072e 931f      	PUSH R17
00072f 5f1f      	SUBI R17,-1
000730 85ee      	LDD  R30,Y+14
000731 91af      	POP  R26
000732 17ae      	CP   R26,R30
000733 f458      	BRSH _0x20000AB
000734 940e 1268 	CALL SUBOPT_0x1A
000736 2fae      	MOV  R26,R30
000737 2fe2      	MOV  R30,R18
000738 940e 15d0 	CALL __LSRB12
00073a 93ea      	ST   -Y,R30
00073b 934a      	ST   -Y,R20
00073c 85ad      	LDD  R26,Y+13
00073d ddf6      	RCALL _ks0108_wrmasked_G100
00073e cfef      	RJMP _0x20000A9
                 _0x20000AB:
                 _0x200009C:
                 _0x2000081:
00073f 85e8      	LDD  R30,Y+8
000740 85aa      	LDD  R26,Y+10
000741 85bb      	LDD  R27,Y+10+1
000742 e0f0      	LDI  R31,0
000743 0fea      	ADD  R30,R26
000744 1ffb      	ADC  R31,R27
000745 87ea      	STD  Y+10,R30
000746 87fb      	STD  Y+10+1,R31
000747 ceb9      	RJMP _0x2000054
                 _0x2000056:
                 _0x2120010:
000748 940e 16b1 	CALL __LOADLOCR6
00074a 9661      	ADIW R28,17
00074b 9508      	RET
                 ; .FEND
                 
                 	.CSEG
                 _glcd_clipx:
                 ; .FSTART _glcd_clipx
00074c 940e 1275 	CALL SUBOPT_0x1B
00074e f01c      	BRLT _0x2020003
00074f e0e0      	LDI  R30,LOW(0)
000750 e0f0      	LDI  R31,HIGH(0)
000751 c148      	RJMP _0x212000C
                 _0x2020003:
000752 81a8      	LD   R26,Y
000753 81b9      	LDD  R27,Y+1
000754 38a0      	CPI  R26,LOW(0x80)
000755 e0e0      	LDI  R30,HIGH(0x80)
000756 07be      	CPC  R27,R30
000757 f01c      	BRLT _0x2020004
000758 e7ef      	LDI  R30,LOW(127)
000759 e0f0      	LDI  R31,HIGH(127)
00075a c13f      	RJMP _0x212000C
                 _0x2020004:
00075b 81e8      	LD   R30,Y
00075c 81f9      	LDD  R31,Y+1
00075d c13c      	RJMP _0x212000C
                 ; .FEND
                 _glcd_clipy:
                 ; .FSTART _glcd_clipy
00075e 940e 1275 	CALL SUBOPT_0x1B
000760 f01c      	BRLT _0x2020005
000761 e0e0      	LDI  R30,LOW(0)
000762 e0f0      	LDI  R31,HIGH(0)
000763 c136      	RJMP _0x212000C
                 _0x2020005:
000764 81a8      	LD   R26,Y
000765 81b9      	LDD  R27,Y+1
000766 34a0      	CPI  R26,LOW(0x40)
000767 e0e0      	LDI  R30,HIGH(0x40)
000768 07be      	CPC  R27,R30
000769 f01c      	BRLT _0x2020006
00076a e3ef      	LDI  R30,LOW(63)
00076b e0f0      	LDI  R31,HIGH(63)
00076c c12d      	RJMP _0x212000C
                 _0x2020006:
00076d 81e8      	LD   R30,Y
00076e 81f9      	LDD  R31,Y+1
00076f c12a      	RJMP _0x212000C
                 ; .FEND
                 _glcd_setpixel:
                 ; .FSTART _glcd_setpixel
000770 93aa      	ST   -Y,R26
000771 81e9      	LDD  R30,Y+1
000772 93ea      	ST   -Y,R30
000773 81e9      	LDD  R30,Y+1
000774 93ea      	ST   -Y,R30
000775 91a0 01f4 	LDS  R26,_glcd_state
000777 dd7e      	RCALL _glcd_putpixel
000778 c121      	RJMP _0x212000C
                 ; .FEND
                 _glcd_getcharw_G101:
                 ; .FSTART _glcd_getcharw_G101
000779 93ba      	ST   -Y,R27
00077a 93aa      	ST   -Y,R26
00077b 9723      	SBIW R28,3
00077c 940e 127c 	CALL SUBOPT_0x1C
00077e 018f      	MOVW R16,R30
00077f 2e00      	MOV  R0,R16
000780 2a01      	OR   R0,R17
000781 f419      	BRNE _0x202000B
000782 e0e0      	LDI  R30,LOW(0)
000783 e0f0      	LDI  R31,HIGH(0)
000784 c05f      	RJMP _0x212000F
                 _0x202000B:
000785 940e 1283 	CALL SUBOPT_0x1D
000787 820f      	STD  Y+7,R0
000788 940e 1283 	CALL SUBOPT_0x1D
00078a 820e      	STD  Y+6,R0
00078b 940e 1283 	CALL SUBOPT_0x1D
00078d 8608      	STD  Y+8,R0
00078e 85eb      	LDD  R30,Y+11
00078f 85a8      	LDD  R26,Y+8
000790 17ea      	CP   R30,R26
000791 f418      	BRSH _0x202000C
000792 e0e0      	LDI  R30,LOW(0)
000793 e0f0      	LDI  R31,HIGH(0)
000794 c04f      	RJMP _0x212000F
                 _0x202000C:
000795 01f8      	MOVW R30,R16
                +
000796 5f0f     +SUBI R16 , LOW ( - 1 )
000797 4f1f     +SBCI R17 , HIGH ( - 1 )
                 	__ADDWRN 16,17,1
000798 9154      	LPM  R21,Z
000799 85a8      	LDD  R26,Y+8
00079a 27bb      	CLR  R27
00079b 27ee      	CLR  R30
00079c 0fa5      	ADD  R26,R21
00079d 1fbe      	ADC  R27,R30
00079e 85eb      	LDD  R30,Y+11
00079f e0f0      	LDI  R31,0
0007a0 17ea      	CP   R30,R26
0007a1 07fb      	CPC  R31,R27
0007a2 f018      	BRLO _0x202000D
0007a3 e0e0      	LDI  R30,LOW(0)
0007a4 e0f0      	LDI  R31,HIGH(0)
0007a5 c03e      	RJMP _0x212000F
                 _0x202000D:
0007a6 81ee      	LDD  R30,Y+6
0007a7 95e6      	LSR  R30
0007a8 95e6      	LSR  R30
0007a9 95e6      	LSR  R30
0007aa 2f4e      	MOV  R20,R30
0007ab 81ee      	LDD  R30,Y+6
0007ac 70e7      	ANDI R30,LOW(0x7)
0007ad f009      	BREQ _0x202000E
0007ae 5f4f      	SUBI R20,-LOW(1)
                 _0x202000E:
0007af 81ef      	LDD  R30,Y+7
0007b0 30e0      	CPI  R30,0
0007b1 f0a1      	BREQ _0x202000F
0007b2 85a9      	LDD  R26,Y+9
0007b3 85ba      	LDD  R27,Y+9+1
0007b4 93ec      	ST   X,R30
0007b5 85a8      	LDD  R26,Y+8
0007b6 85eb      	LDD  R30,Y+11
0007b7 1bea      	SUB  R30,R26
0007b8 e0f0      	LDI  R31,0
0007b9 01df      	MOVW R26,R30
0007ba 81ef      	LDD  R30,Y+7
0007bb e0f0      	LDI  R31,0
0007bc 940e 15ed 	CALL __MULW12U
0007be 01df      	MOVW R26,R30
0007bf 2fe4      	MOV  R30,R20
0007c0 e0f0      	LDI  R31,0
0007c1 940e 15ed 	CALL __MULW12U
0007c3 0fe0      	ADD  R30,R16
0007c4 1ff1      	ADC  R31,R17
0007c5 c01e      	RJMP _0x212000F
                 _0x202000F:
0007c6 0198      	MOVW R18,R16
0007c7 2fe5      	MOV  R30,R21
0007c8 e0f0      	LDI  R31,0
                +
0007c9 0f0e     +ADD R16 , R30
0007ca 1f1f     +ADC R17 , R31
                 	__ADDWRR 16,17,30,31
                 _0x2020010:
0007cb 85a8      	LDD  R26,Y+8
0007cc 5faf      	SUBI R26,-LOW(1)
0007cd 87a8      	STD  Y+8,R26
0007ce 50a1      	SUBI R26,LOW(1)
0007cf 85eb      	LDD  R30,Y+11
0007d0 17ae      	CP   R26,R30
0007d1 f460      	BRSH _0x2020012
0007d2 01f9      	MOVW R30,R18
                +
0007d3 5f2f     +SUBI R18 , LOW ( - 1 )
0007d4 4f3f     +SBCI R19 , HIGH ( - 1 )
                 	__ADDWRN 18,19,1
0007d5 91a4      	LPM  R26,Z
0007d6 e0b0      	LDI  R27,0
0007d7 2fe4      	MOV  R30,R20
0007d8 e0f0      	LDI  R31,0
0007d9 940e 15ed 	CALL __MULW12U
                +
0007db 0f0e     +ADD R16 , R30
0007dc 1f1f     +ADC R17 , R31
                 	__ADDWRR 16,17,30,31
0007dd cfed      	RJMP _0x2020010
                 _0x2020012:
0007de 01f9      	MOVW R30,R18
0007df 91e4      	LPM  R30,Z
0007e0 85a9      	LDD  R26,Y+9
0007e1 85ba      	LDD  R27,Y+9+1
0007e2 93ec      	ST   X,R30
0007e3 01f8      	MOVW R30,R16
                 _0x212000F:
0007e4 940e 16b1 	CALL __LOADLOCR6
0007e6 962c      	ADIW R28,12
0007e7 9508      	RET
                 ; .FEND
                 _glcd_new_line_G101:
                 ; .FSTART _glcd_new_line_G101
0007e8 e0e0      	LDI  R30,LOW(0)
                +
0007e9 93e0 01f6+STS _glcd_state + ( 2 ) , R30
                 	__PUTB1MN _glcd_state,2
                +
0007eb 91a0 01f7+LDS R26 , _glcd_state + ( 3 )
                 	__GETB2MN _glcd_state,3
0007ed 27bb      	CLR  R27
0007ee 940e 1288 	CALL SUBOPT_0x1E
0007f0 e0f0      	LDI  R31,0
0007f1 0fae      	ADD  R26,R30
0007f2 1fbf      	ADC  R27,R31
                +
0007f3 91e0 01fb+LDS R30 , _glcd_state + ( 7 )
                 	__GETB1MN _glcd_state,7
0007f5 e0f0      	LDI  R31,0
0007f6 0fae      	ADD  R26,R30
0007f7 1fbf      	ADC  R27,R31
0007f8 df65      	RCALL _glcd_clipy
                +
0007f9 93e0 01f7+STS _glcd_state + ( 3 ) , R30
                 	__PUTB1MN _glcd_state,3
0007fb 9508      	RET
                 ; .FEND
                 _glcd_putchar:
                 ; .FSTART _glcd_putchar
0007fc 93aa      	ST   -Y,R26
0007fd 9721      	SBIW R28,1
0007fe 940e 127c 	CALL SUBOPT_0x1C
000800 9730      	SBIW R30,0
000801 f409      	BRNE PC+2
000802 c057      	RJMP _0x202001F
000803 81af      	LDD  R26,Y+7
000804 30aa      	CPI  R26,LOW(0xA)
000805 f409      	BRNE _0x2020020
000806 c04f      	RJMP _0x2020021
                 _0x2020020:
000807 81ef      	LDD  R30,Y+7
000808 93ea      	ST   -Y,R30
000809 01de      	MOVW R26,R28
00080a 9617      	ADIW R26,7
00080b df6d      	RCALL _glcd_getcharw_G101
00080c 01af      	MOVW R20,R30
00080d 9730      	SBIW R30,0
00080e f419      	BRNE _0x2020022
00080f 940e 16b1 	CALL __LOADLOCR6
000811 c446      	RJMP _0x2120009
                 _0x2020022:
                +
000812 91e0 01fa+LDS R30 , _glcd_state + ( 6 )
                 	__GETB1MN _glcd_state,6
000814 81ae      	LDD  R26,Y+6
000815 0fea      	ADD  R30,R26
000816 2f3e      	MOV  R19,R30
                +
000817 91a0 01f6+LDS R26 , _glcd_state + ( 2 )
                 	__GETB2MN _glcd_state,2
000819 27bb      	CLR  R27
00081a 940e 128f 	CALL SUBOPT_0x1F
                +
00081c 3801     +CPI R16 , LOW ( 129 )
00081d e0e0     +LDI R30 , HIGH ( 129 )
00081e 071e     +CPC R17 , R30
                 	__CPWRN 16,17,129
00081f f018      	BRLO _0x2020023
000820 2f03      	MOV  R16,R19
000821 2711      	CLR  R17
000822 dfc5      	RCALL _glcd_new_line_G101
                 _0x2020023:
                +
000823 91e0 01f6+LDS R30 , _glcd_state + ( 2 )
                 	__GETB1MN _glcd_state,2
000825 93ea      	ST   -Y,R30
                +
000826 91e0 01f7+LDS R30 , _glcd_state + ( 3 )
                 	__GETB1MN _glcd_state,3
000828 93ea      	ST   -Y,R30
000829 85e8      	LDD  R30,Y+8
00082a 93ea      	ST   -Y,R30
00082b 940e 1288 	CALL SUBOPT_0x1E
00082d 93ea      	ST   -Y,R30
00082e e0e1      	LDI  R30,LOW(1)
00082f 93ea      	ST   -Y,R30
000830 935a      	ST   -Y,R21
000831 934a      	ST   -Y,R20
000832 e0a7      	LDI  R26,LOW(7)
000833 dd3b      	RCALL _glcd_block
                +
000834 91e0 01f6+LDS R30 , _glcd_state + ( 2 )
                 	__GETB1MN _glcd_state,2
000836 81ae      	LDD  R26,Y+6
000837 0fea      	ADD  R30,R26
000838 93ea      	ST   -Y,R30
                +
000839 91e0 01f7+LDS R30 , _glcd_state + ( 3 )
                 	__GETB1MN _glcd_state,3
00083b 93ea      	ST   -Y,R30
                +
00083c 91e0 01fa+LDS R30 , _glcd_state + ( 6 )
                 	__GETB1MN _glcd_state,6
00083e 93ea      	ST   -Y,R30
00083f 940e 1288 	CALL SUBOPT_0x1E
000841 940e 1294 	CALL SUBOPT_0x20
                +
000843 91e0 01f6+LDS R30 , _glcd_state + ( 2 )
                 	__GETB1MN _glcd_state,2
000845 93ea      	ST   -Y,R30
                +
000846 91a0 01f7+LDS R26 , _glcd_state + ( 3 )
                 	__GETB2MN _glcd_state,3
000848 940e 1288 	CALL SUBOPT_0x1E
00084a 0fea      	ADD  R30,R26
00084b 93ea      	ST   -Y,R30
00084c 933a      	ST   -Y,R19
                +
00084d 91e0 01fb+LDS R30 , _glcd_state + ( 7 )
                 	__GETB1MN _glcd_state,7
00084f 940e 1294 	CALL SUBOPT_0x20
000851 e8e0      	LDI  R30,LOW(128)
000852 e0f0      	LDI  R31,HIGH(128)
000853 17e0      	CP   R30,R16
000854 07f1      	CPC  R31,R17
000855 f421      	BRNE _0x2020024
                 _0x2020021:
000856 df91      	RCALL _glcd_new_line_G101
000857 940e 16b1 	CALL __LOADLOCR6
000859 c3fe      	RJMP _0x2120009
                 _0x2020024:
                 _0x202001F:
                +
00085a 9300 01f6+STS _glcd_state + ( 2 ) , R16
                 	__PUTBMRN _glcd_state,2,16
00085c 940e 16b1 	CALL __LOADLOCR6
00085e c3f9      	RJMP _0x2120009
                 ; .FEND
                 _glcd_outtextxy:
                 ; .FSTART _glcd_outtextxy
00085f 93ba      	ST   -Y,R27
000860 93aa      	ST   -Y,R26
000861 931a      	ST   -Y,R17
000862 81ec      	LDD  R30,Y+4
000863 93ea      	ST   -Y,R30
000864 81ac      	LDD  R26,Y+4
000865 d029      	RCALL _glcd_moveto
                 _0x2020025:
000866 81a9      	LDD  R26,Y+1
000867 81ba      	LDD  R27,Y+1+1
000868 91ed      	LD   R30,X+
000869 83a9      	STD  Y+1,R26
00086a 83ba      	STD  Y+1+1,R27
00086b 2f1e      	MOV  R17,R30
00086c 30e0      	CPI  R30,0
00086d f019      	BREQ _0x2020027
00086e 2fa1      	MOV  R26,R17
00086f df8c      	RCALL _glcd_putchar
000870 cff5      	RJMP _0x2020025
                 _0x2020027:
000871 8118      	LDD  R17,Y+0
                 _0x212000E:
000872 9625      	ADIW R28,5
000873 9508      	RET
                 ; .FEND
                 _glcd_putpixelm_G101:
                 ; .FSTART _glcd_putpixelm_G101
000874 93aa      	ST   -Y,R26
000875 81ea      	LDD  R30,Y+2
000876 93ea      	ST   -Y,R30
000877 81ea      	LDD  R30,Y+2
000878 93ea      	ST   -Y,R30
                +
000879 91e0 01fd+LDS R30 , _glcd_state + ( 9 )
                 	__GETB1MN _glcd_state,9
00087b 81aa      	LDD  R26,Y+2
00087c 23ea      	AND  R30,R26
00087d f019      	BREQ _0x202003E
00087e 91e0 01f4 	LDS  R30,_glcd_state
000880 c002      	RJMP _0x202003F
                 _0x202003E:
                +
000881 91e0 01f5+LDS R30 , _glcd_state + ( 1 )
                 	__GETB1MN _glcd_state,1
                 _0x202003F:
000883 2fae      	MOV  R26,R30
000884 dc71      	RCALL _glcd_putpixel
000885 81e8      	LD   R30,Y
000886 0fee      	LSL  R30
000887 83e8      	ST   Y,R30
000888 30e0      	CPI  R30,0
000889 f411      	BRNE _0x2020041
00088a e0e1      	LDI  R30,LOW(1)
00088b 83e8      	ST   Y,R30
                 _0x2020041:
00088c 81e8      	LD   R30,Y
                 _0x212000D:
00088d 9623      	ADIW R28,3
00088e 9508      	RET
                 ; .FEND
                 _glcd_moveto:
                 ; .FSTART _glcd_moveto
00088f 93aa      	ST   -Y,R26
000890 81a9      	LDD  R26,Y+1
000891 27bb      	CLR  R27
000892 deb9      	RCALL _glcd_clipx
                +
000893 93e0 01f6+STS _glcd_state + ( 2 ) , R30
                 	__PUTB1MN _glcd_state,2
000895 81a8      	LD   R26,Y
000896 27bb      	CLR  R27
000897 dec6      	RCALL _glcd_clipy
                +
000898 93e0 01f7+STS _glcd_state + ( 3 ) , R30
                 	__PUTB1MN _glcd_state,3
                 _0x212000C:
00089a 9622      	ADIW R28,2
00089b 9508      	RET
                 ; .FEND
                 _glcd_line:
                 ; .FSTART _glcd_line
00089c 93aa      	ST   -Y,R26
00089d 972b      	SBIW R28,11
00089e 940e 16aa 	CALL __SAVELOCR6
0008a0 89ac      	LDD  R26,Y+20
0008a1 27bb      	CLR  R27
0008a2 dea9      	RCALL _glcd_clipx
0008a3 8bec      	STD  Y+20,R30
0008a4 89aa      	LDD  R26,Y+18
0008a5 27bb      	CLR  R27
0008a6 dea5      	RCALL _glcd_clipx
0008a7 8bea      	STD  Y+18,R30
0008a8 89ab      	LDD  R26,Y+19
0008a9 27bb      	CLR  R27
0008aa deb3      	RCALL _glcd_clipy
0008ab 8beb      	STD  Y+19,R30
0008ac 89a9      	LDD  R26,Y+17
0008ad 27bb      	CLR  R27
0008ae deaf      	RCALL _glcd_clipy
0008af 8be9      	STD  Y+17,R30
0008b0 89ea      	LDD  R30,Y+18
                +
0008b1 93e0 01f6+STS _glcd_state + ( 2 ) , R30
                 	__PUTB1MN _glcd_state,2
0008b3 89e9      	LDD  R30,Y+17
                +
0008b4 93e0 01f7+STS _glcd_state + ( 3 ) , R30
                 	__PUTB1MN _glcd_state,3
0008b6 e0e1      	LDI  R30,LOW(1)
0008b7 87e8      	STD  Y+8,R30
0008b8 89e9      	LDD  R30,Y+17
0008b9 89ab      	LDD  R26,Y+19
0008ba 17ea      	CP   R30,R26
0008bb f571      	BRNE _0x2020042
0008bc 891c      	LDD  R17,Y+20
0008bd 89aa      	LDD  R26,Y+18
0008be 171a      	CP   R17,R26
0008bf f431      	BRNE _0x2020043
0008c0 931a      	ST   -Y,R17
0008c1 89ec      	LDD  R30,Y+20
0008c2 93ea      	ST   -Y,R30
0008c3 e0a1      	LDI  R26,LOW(1)
0008c4 dfaf      	RCALL _glcd_putpixelm_G101
0008c5 c0c8      	RJMP _0x212000B
                 _0x2020043:
0008c6 89aa      	LDD  R26,Y+18
0008c7 171a      	CP   R17,R26
0008c8 f430      	BRSH _0x2020044
0008c9 89ea      	LDD  R30,Y+18
0008ca 1be1      	SUB  R30,R17
0008cb 2f0e      	MOV  R16,R30
                +
0008cc e041     +LDI R20 , LOW ( 1 )
0008cd e050     +LDI R21 , HIGH ( 1 )
                 	__GETWRN 20,21,1
0008ce c006      	RJMP _0x2020045
                 _0x2020044:
0008cf 89aa      	LDD  R26,Y+18
0008d0 2fe1      	MOV  R30,R17
0008d1 1bea      	SUB  R30,R26
0008d2 2f0e      	MOV  R16,R30
                +
0008d3 ef4f     +LDI R20 , LOW ( - 1 )
0008d4 ef5f     +LDI R21 , HIGH ( - 1 )
                 	__GETWRN 20,21,-1
                 _0x2020045:
                 _0x2020047:
0008d5 893b      	LDD  R19,Y+19
0008d6 e0e0      	LDI  R30,LOW(0)
0008d7 83ee      	STD  Y+6,R30
                 _0x2020049:
0008d8 940e 129e 	CALL SUBOPT_0x21
0008da f438      	BRSH _0x202004B
0008db 931a      	ST   -Y,R17
0008dc 933a      	ST   -Y,R19
0008dd 9533      	INC  R19
0008de 85aa      	LDD  R26,Y+10
0008df df94      	RCALL _glcd_putpixelm_G101
0008e0 83ef      	STD  Y+7,R30
0008e1 cff6      	RJMP _0x2020049
                 _0x202004B:
0008e2 81ef      	LDD  R30,Y+7
0008e3 87e8      	STD  Y+8,R30
0008e4 0f14      	ADD  R17,R20
0008e5 2fe0      	MOV  R30,R16
0008e6 5001      	SUBI R16,1
0008e7 30e0      	CPI  R30,0
0008e8 f761      	BRNE _0x2020047
0008e9 c0a4      	RJMP _0x202004C
                 _0x2020042:
0008ea 89ea      	LDD  R30,Y+18
0008eb 89ac      	LDD  R26,Y+20
0008ec 17ea      	CP   R30,R26
0008ed f539      	BRNE _0x202004D
0008ee 893b      	LDD  R19,Y+19
0008ef 89a9      	LDD  R26,Y+17
0008f0 173a      	CP   R19,R26
0008f1 f430      	BRSH _0x202004E
0008f2 89e9      	LDD  R30,Y+17
0008f3 1be3      	SUB  R30,R19
0008f4 2f2e      	MOV  R18,R30
0008f5 e0e1      	LDI  R30,LOW(1)
0008f6 e0f0      	LDI  R31,HIGH(1)
0008f7 c006      	RJMP _0x202011B
                 _0x202004E:
0008f8 89a9      	LDD  R26,Y+17
0008f9 2fe3      	MOV  R30,R19
0008fa 1bea      	SUB  R30,R26
0008fb 2f2e      	MOV  R18,R30
0008fc efef      	LDI  R30,LOW(65535)
0008fd efff      	LDI  R31,HIGH(65535)
                 _0x202011B:
0008fe 87ed      	STD  Y+13,R30
0008ff 87fe      	STD  Y+13+1,R31
                 _0x2020051:
000900 891c      	LDD  R17,Y+20
000901 e0e0      	LDI  R30,LOW(0)
000902 83ee      	STD  Y+6,R30
                 _0x2020053:
000903 940e 129e 	CALL SUBOPT_0x21
000905 f430      	BRSH _0x2020055
000906 931a      	ST   -Y,R17
000907 9513      	INC  R17
000908 940e 12a6 	CALL SUBOPT_0x22
00090a 83ef      	STD  Y+7,R30
00090b cff7      	RJMP _0x2020053
                 _0x2020055:
00090c 81ef      	LDD  R30,Y+7
00090d 87e8      	STD  Y+8,R30
00090e 85ed      	LDD  R30,Y+13
00090f 0f3e      	ADD  R19,R30
000910 2fe2      	MOV  R30,R18
000911 5021      	SUBI R18,1
000912 30e0      	CPI  R30,0
000913 f761      	BRNE _0x2020051
000914 c079      	RJMP _0x2020056
                 _0x202004D:
000915 e0e0      	LDI  R30,LOW(0)
000916 83ee      	STD  Y+6,R30
                 _0x2020057:
000917 940e 129e 	CALL SUBOPT_0x21
000919 f008      	BRLO PC+2
00091a c073      	RJMP _0x2020059
00091b 891c      	LDD  R17,Y+20
00091c 893b      	LDD  R19,Y+19
00091d e0e1      	LDI  R30,LOW(1)
00091e 2f2e      	MOV  R18,R30
00091f 2f0e      	MOV  R16,R30
000920 89aa      	LDD  R26,Y+18
000921 27bb      	CLR  R27
000922 89ec      	LDD  R30,Y+20
000923 e0f0      	LDI  R31,0
000924 1bae      	SUB  R26,R30
000925 0bbf      	SBC  R27,R31
000926 01ad      	MOVW R20,R26
000927 2355      	TST  R21
000928 f42a      	BRPL _0x202005A
000929 ef0f      	LDI  R16,LOW(255)
00092a 01fa      	MOVW R30,R20
00092b 940e 15bc 	CALL __ANEGW1
00092d 01af      	MOVW R20,R30
                 _0x202005A:
00092e 01fa      	MOVW R30,R20
00092f 0fee      	LSL  R30
000930 1fff      	ROL  R31
000931 87ef      	STD  Y+15,R30
000932 8bf8      	STD  Y+15+1,R31
000933 89a9      	LDD  R26,Y+17
000934 27bb      	CLR  R27
000935 89eb      	LDD  R30,Y+19
000936 e0f0      	LDI  R31,0
000937 1bae      	SUB  R26,R30
000938 0bbf      	SBC  R27,R31
000939 87ad      	STD  Y+13,R26
00093a 87be      	STD  Y+13+1,R27
00093b 85ae      	LDD  R26,Y+14
00093c 23aa      	TST  R26
00093d f43a      	BRPL _0x202005B
00093e ef2f      	LDI  R18,LOW(255)
00093f 85ed      	LDD  R30,Y+13
000940 85fe      	LDD  R31,Y+13+1
000941 940e 15bc 	CALL __ANEGW1
000943 87ed      	STD  Y+13,R30
000944 87fe      	STD  Y+13+1,R31
                 _0x202005B:
000945 85ed      	LDD  R30,Y+13
000946 85fe      	LDD  R31,Y+13+1
000947 0fee      	LSL  R30
000948 1fff      	ROL  R31
000949 87eb      	STD  Y+11,R30
00094a 87fc      	STD  Y+11+1,R31
00094b 931a      	ST   -Y,R17
00094c 933a      	ST   -Y,R19
00094d e0a1      	LDI  R26,LOW(1)
00094e df25      	RCALL _glcd_putpixelm_G101
00094f 87e8      	STD  Y+8,R30
000950 e0e0      	LDI  R30,LOW(0)
000951 87e9      	STD  Y+9,R30
000952 87ea      	STD  Y+9+1,R30
000953 85ad      	LDD  R26,Y+13
000954 85be      	LDD  R27,Y+13+1
000955 174a      	CP   R20,R26
000956 075b      	CPC  R21,R27
000957 f0bc      	BRLT _0x202005C
                 _0x202005E:
000958 0f10      	ADD  R17,R16
000959 85eb      	LDD  R30,Y+11
00095a 85fc      	LDD  R31,Y+11+1
00095b 940e 12aa 	CALL SUBOPT_0x23
00095d 85a9      	LDD  R26,Y+9
00095e 85ba      	LDD  R27,Y+9+1
00095f 174a      	CP   R20,R26
000960 075b      	CPC  R21,R27
000961 f42c      	BRGE _0x2020060
000962 0f32      	ADD  R19,R18
000963 85af      	LDD  R26,Y+15
000964 89b8      	LDD  R27,Y+15+1
000965 940e 12b1 	CALL SUBOPT_0x24
                 _0x2020060:
000967 931a      	ST   -Y,R17
000968 940e 12a6 	CALL SUBOPT_0x22
00096a 87e8      	STD  Y+8,R30
00096b 89ea      	LDD  R30,Y+18
00096c 17e1      	CP   R30,R17
00096d f751      	BRNE _0x202005E
00096e c018      	RJMP _0x2020061
                 _0x202005C:
                 _0x2020063:
00096f 0f32      	ADD  R19,R18
000970 85ef      	LDD  R30,Y+15
000971 89f8      	LDD  R31,Y+15+1
000972 940e 12aa 	CALL SUBOPT_0x23
000974 85ed      	LDD  R30,Y+13
000975 85fe      	LDD  R31,Y+13+1
000976 85a9      	LDD  R26,Y+9
000977 85ba      	LDD  R27,Y+9+1
000978 17ea      	CP   R30,R26
000979 07fb      	CPC  R31,R27
00097a f42c      	BRGE _0x2020065
00097b 0f10      	ADD  R17,R16
00097c 85ab      	LDD  R26,Y+11
00097d 85bc      	LDD  R27,Y+11+1
00097e 940e 12b1 	CALL SUBOPT_0x24
                 _0x2020065:
000980 931a      	ST   -Y,R17
000981 940e 12a6 	CALL SUBOPT_0x22
000983 87e8      	STD  Y+8,R30
000984 89e9      	LDD  R30,Y+17
000985 17e3      	CP   R30,R19
000986 f741      	BRNE _0x2020063
                 _0x2020061:
000987 89eb      	LDD  R30,Y+19
000988 5fef      	SUBI R30,-LOW(1)
000989 8beb      	STD  Y+19,R30
00098a 89e9      	LDD  R30,Y+17
00098b 5fef      	SUBI R30,-LOW(1)
00098c 8be9      	STD  Y+17,R30
00098d cf89      	RJMP _0x2020057
                 _0x2020059:
                 _0x2020056:
                 _0x202004C:
                 _0x212000B:
00098e 940e 16b1 	CALL __LOADLOCR6
000990 9665      	ADIW R28,21
000991 9508      	RET
                 ; .FEND
                 _glcd_corners_G101:
                 ; .FSTART _glcd_corners_G101
000992 93ba      	ST   -Y,R27
000993 93aa      	ST   -Y,R26
000994 940e 16aa 	CALL __SAVELOCR6
000996 81ee      	LDD  R30,Y+6
000997 81ff      	LDD  R31,Y+6+1
000998 8113      	LDD  R17,Z+3
000999 8101      	LDD  R16,Z+1
00099a 8132      	LDD  R19,Z+2
00099b 81ae      	LDD  R26,Y+6
00099c 81bf      	LDD  R27,Y+6+1
00099d 912c      	LD   R18,X
00099e 1701      	CP   R16,R17
00099f f418      	BRSH _0x2020066
0009a0 2f50      	MOV  R21,R16
0009a1 2f01      	MOV  R16,R17
0009a2 2f15      	MOV  R17,R21
                 _0x2020066:
0009a3 1723      	CP   R18,R19
0009a4 f418      	BRSH _0x2020067
0009a5 2f52      	MOV  R21,R18
0009a6 2f23      	MOV  R18,R19
0009a7 2f35      	MOV  R19,R21
                 _0x2020067:
0009a8 2fe1      	MOV  R30,R17
                +
0009a9 81ae     +LDD R26 , Y + 6
0009aa 81bf     +LDD R27 , Y + 6 + 1
0009ab 9613     +ADIW R26 , 3
0009ac 93ec     +ST X , R30
                 	__PUTB1SNS 6,3
0009ad 2fe3      	MOV  R30,R19
                +
0009ae 81ae     +LDD R26 , Y + 6
0009af 81bf     +LDD R27 , Y + 6 + 1
0009b0 9612     +ADIW R26 , 2
0009b1 93ec     +ST X , R30
                 	__PUTB1SNS 6,2
0009b2 2fe0      	MOV  R30,R16
                +
0009b3 81ae     +LDD R26 , Y + 6
0009b4 81bf     +LDD R27 , Y + 6 + 1
0009b5 9611     +ADIW R26 , 1
0009b6 93ec     +ST X , R30
                 	__PUTB1SNS 6,1
0009b7 81ae      	LDD  R26,Y+6
0009b8 81bf      	LDD  R27,Y+6+1
0009b9 932c      	ST   X,R18
0009ba 940e 16b1 	CALL __LOADLOCR6
0009bc c29b      	RJMP _0x2120009
                 ; .FEND
                 _glcd_rectround:
                 ; .FSTART _glcd_rectround
0009bd 93aa      	ST   -Y,R26
0009be 9722      	SBIW R28,2
0009bf 940e 16aa 	CALL __SAVELOCR6
0009c1 85ea      	LDD  R30,Y+10
0009c2 30e0      	CPI  R30,0
0009c3 f019      	BREQ _0x2020069
0009c4 85e9      	LDD  R30,Y+9
0009c5 30e0      	CPI  R30,0
0009c6 f409      	BRNE _0x202006A
                 _0x2020069:
0009c7 c05e      	RJMP _0x2020068
                 _0x202006A:
0009c8 85e8      	LDD  R30,Y+8
0009c9 85ac      	LDD  R26,Y+12
0009ca 0fea      	ADD  R30,R26
0009cb 2f1e      	MOV  R17,R30
0009cc 85e8      	LDD  R30,Y+8
0009cd 85ab      	LDD  R26,Y+11
0009ce 0fea      	ADD  R30,R26
0009cf 2f2e      	MOV  R18,R30
                +
0009d0 91e0 01fc+LDS R30 , _glcd_state + ( 8 )
                 	__GETB1MN _glcd_state,8
0009d2 50e1      	SUBI R30,LOW(1)
0009d3 83ef      	STD  Y+7,R30
0009d4 85ea      	LDD  R30,Y+10
0009d5 85ac      	LDD  R26,Y+12
0009d6 0fae      	ADD  R26,R30
0009d7 50a1      	SUBI R26,LOW(1)
0009d8 2f3a      	MOV  R19,R26
0009d9 85a8      	LDD  R26,Y+8
0009da 2fe3      	MOV  R30,R19
0009db 1bea      	SUB  R30,R26
0009dc 2f0e      	MOV  R16,R30
0009dd 81af      	LDD  R26,Y+7
0009de 1b3a      	SUB  R19,R26
0009df 85e9      	LDD  R30,Y+9
0009e0 85ab      	LDD  R26,Y+11
0009e1 0fae      	ADD  R26,R30
0009e2 50a1      	SUBI R26,LOW(1)
0009e3 2f4a      	MOV  R20,R26
0009e4 85a8      	LDD  R26,Y+8
0009e5 2fe4      	MOV  R30,R20
0009e6 1bea      	SUB  R30,R26
0009e7 2f5e      	MOV  R21,R30
0009e8 81af      	LDD  R26,Y+7
0009e9 1b4a      	SUB  R20,R26
                +
0009ea 91e0 01fd+LDS R30 , _glcd_state + ( 9 )
                 	__GETB1MN _glcd_state,9
0009ec 83ee      	STD  Y+6,R30
0009ed efef      	LDI  R30,LOW(255)
                +
0009ee 93e0 01fd+STS _glcd_state + ( 9 ) , R30
                 	__PUTB1MN _glcd_state,9
0009f0 931a      	ST   -Y,R17
0009f1 85ec      	LDD  R30,Y+12
0009f2 93ea      	ST   -Y,R30
0009f3 2fe0      	MOV  R30,R16
0009f4 50e1      	SUBI R30,LOW(1)
0009f5 93ea      	ST   -Y,R30
0009f6 85ae      	LDD  R26,Y+14
0009f7 dea4      	RCALL _glcd_line
0009f8 930a      	ST   -Y,R16
0009f9 932a      	ST   -Y,R18
0009fa 85ea      	LDD  R30,Y+10
0009fb 93ea      	ST   -Y,R30
0009fc e8a1      	LDI  R26,LOW(129)
0009fd d1b5      	RCALL _glcd_quadrant_G101
0009fe 933a      	ST   -Y,R19
0009ff 932a      	ST   -Y,R18
000a00 933a      	ST   -Y,R19
000a01 2fa5      	MOV  R26,R21
000a02 50a1      	SUBI R26,LOW(1)
000a03 de98      	RCALL _glcd_line
000a04 930a      	ST   -Y,R16
000a05 935a      	ST   -Y,R21
000a06 85ea      	LDD  R30,Y+10
000a07 93ea      	ST   -Y,R30
000a08 e8a8      	LDI  R26,LOW(136)
000a09 d1a9      	RCALL _glcd_quadrant_G101
000a0a 930a      	ST   -Y,R16
000a0b 934a      	ST   -Y,R20
000a0c 931a      	ST   -Y,R17
000a0d 2fa4      	MOV  R26,R20
000a0e de8d      	RCALL _glcd_line
000a0f 931a      	ST   -Y,R17
000a10 935a      	ST   -Y,R21
000a11 85ea      	LDD  R30,Y+10
000a12 93ea      	ST   -Y,R30
000a13 e8a4      	LDI  R26,LOW(132)
000a14 d19e      	RCALL _glcd_quadrant_G101
000a15 85ec      	LDD  R30,Y+12
000a16 93ea      	ST   -Y,R30
000a17 935a      	ST   -Y,R21
000a18 85ee      	LDD  R30,Y+14
000a19 93ea      	ST   -Y,R30
000a1a 2fa2      	MOV  R26,R18
000a1b de80      	RCALL _glcd_line
000a1c 931a      	ST   -Y,R17
000a1d 932a      	ST   -Y,R18
000a1e 85ea      	LDD  R30,Y+10
000a1f 93ea      	ST   -Y,R30
000a20 e8a2      	LDI  R26,LOW(130)
000a21 d191      	RCALL _glcd_quadrant_G101
000a22 81ee      	LDD  R30,Y+6
                +
000a23 93e0 01fd+STS _glcd_state + ( 9 ) , R30
                 	__PUTB1MN _glcd_state,9
000a25 c004      	RJMP _0x202006B
                 _0x2020068:
000a26 85ec      	LDD  R30,Y+12
000a27 93ea      	ST   -Y,R30
000a28 85ac      	LDD  R26,Y+12
000a29 dd46      	RCALL _glcd_setpixel
                 _0x202006B:
000a2a 940e 16b1 	CALL __LOADLOCR6
000a2c 962d      	ADIW R28,13
000a2d 9508      	RET
                 ; .FEND
                 _glcd_plot8_G101:
                 ; .FSTART _glcd_plot8_G101
000a2e 93ba      	ST   -Y,R27
000a2f 93aa      	ST   -Y,R26
000a30 9723      	SBIW R28,3
000a31 940e 16aa 	CALL __SAVELOCR6
000a33 85ed      	LDD  R30,Y+13
000a34 87e8      	STD  Y+8,R30
                +
000a35 91e0 01fc+LDS R30 , _glcd_state + ( 8 )
                 	__GETB1MN _glcd_state,8
000a37 83ef      	STD  Y+7,R30
000a38 91e0 01f4 	LDS  R30,_glcd_state
000a3a 83ee      	STD  Y+6,R30
000a3b 89aa      	LDD  R26,Y+18
000a3c 27bb      	CLR  R27
000a3d 85ef      	LDD  R30,Y+15
000a3e 940e 128f 	CALL SUBOPT_0x1F
000a40 89a9      	LDD  R26,Y+17
000a41 27bb      	CLR  R27
000a42 89e8      	LDD  R30,Y+16
000a43 940e 12b8 	CALL SUBOPT_0x25
000a45 89e8      	LDD  R30,Y+16
000a46 940e 12bf 	CALL SUBOPT_0x26
000a48 f071      	BREQ _0x2020073
000a49 85e8      	LDD  R30,Y+8
000a4a 78e0      	ANDI R30,LOW(0x80)
000a4b f4f1      	BRNE _0x2020075
000a4c 85ad      	LDD  R26,Y+13
000a4d 85be      	LDD  R27,Y+13+1
000a4e e5ea      	LDI  R30,LOW(90)
000a4f e0f0      	LDI  R31,HIGH(90)
000a50 940e 12c7 	CALL SUBOPT_0x27
000a52 f01c      	BRLT _0x2020077
000a53 940e 12d0 	CALL SUBOPT_0x28
000a55 f40c      	BRGE _0x2020078
                 _0x2020077:
000a56 c013      	RJMP _0x2020076
                 _0x2020078:
                 _0x2020073:
000a57 2333      	TST  R19
000a58 f012      	BRMI _0x2020079
000a59 940e 12d5 	CALL SUBOPT_0x29
                 _0x2020079:
000a5b 81af      	LDD  R26,Y+7
000a5c 30a2      	CPI  R26,LOW(0x2)
000a5d f020      	BRLO _0x202007B
                +
000a5e 3022     +CPI R18 , LOW ( 2 )
000a5f e0e0     +LDI R30 , HIGH ( 2 )
000a60 073e     +CPC R19 , R30
                 	__CPWRN 18,19,2
000a61 f40c      	BRGE _0x202007C
                 _0x202007B:
000a62 c007      	RJMP _0x202007A
                 _0x202007C:
000a63 940e 12d9 	CALL SUBOPT_0x2A
000a65 f421      	BRNE _0x202007D
000a66 930a      	ST   -Y,R16
000a67 2fa2      	MOV  R26,R18
000a68 50a1      	SUBI R26,LOW(1)
000a69 dd06      	RCALL _glcd_setpixel
                 _0x202007D:
                 _0x202007A:
                 _0x2020076:
                 _0x2020075:
000a6a 85e8      	LDD  R30,Y+8
000a6b 78e8      	ANDI R30,LOW(0x88)
000a6c 38e8      	CPI  R30,LOW(0x88)
000a6d f091      	BREQ _0x202007F
000a6e 85e8      	LDD  R30,Y+8
000a6f 78e0      	ANDI R30,LOW(0x80)
000a70 f4c9      	BRNE _0x2020081
000a71 85ad      	LDD  R26,Y+13
000a72 85be      	LDD  R27,Y+13+1
000a73 5fa2      	SUBI R26,LOW(-270)
000a74 4fbe      	SBCI R27,HIGH(-270)
000a75 940e 12e2 	CALL SUBOPT_0x2B
000a77 f03c      	BRLT _0x2020083
000a78 85ad      	LDD  R26,Y+13
000a79 85be      	LDD  R27,Y+13+1
000a7a 5fa2      	SUBI R26,LOW(-270)
000a7b 4fbe      	SBCI R27,HIGH(-270)
000a7c 940e 12e7 	CALL SUBOPT_0x2C
000a7e f40c      	BRGE _0x2020084
                 _0x2020083:
000a7f c00a      	RJMP _0x2020082
                 _0x2020084:
                 _0x202007F:
000a80 940e 12ec 	CALL SUBOPT_0x2D
000a82 f038      	BRLO _0x2020085
000a83 940e 12f3 	CALL SUBOPT_0x2E
000a85 f421      	BRNE _0x2020086
000a86 930a      	ST   -Y,R16
000a87 2fa4      	MOV  R26,R20
000a88 5faf      	SUBI R26,-LOW(1)
000a89 dce6      	RCALL _glcd_setpixel
                 _0x2020086:
                 _0x2020085:
                 _0x2020082:
                 _0x2020081:
000a8a 89aa      	LDD  R26,Y+18
000a8b 27bb      	CLR  R27
000a8c 85ef      	LDD  R30,Y+15
000a8d e0f0      	LDI  R31,0
000a8e 1bae      	SUB  R26,R30
000a8f 0bbf      	SBC  R27,R31
000a90 018d      	MOVW R16,R26
000a91 2311      	TST  R17
000a92 f40a      	BRPL PC+2
000a93 c045      	RJMP _0x2020087
000a94 85e8      	LDD  R30,Y+8
000a95 78e2      	ANDI R30,LOW(0x82)
000a96 38e2      	CPI  R30,LOW(0x82)
000a97 f091      	BREQ _0x2020089
000a98 85e8      	LDD  R30,Y+8
000a99 78e0      	ANDI R30,LOW(0x80)
000a9a f511      	BRNE _0x202008B
000a9b 85ad      	LDD  R26,Y+13
000a9c 85be      	LDD  R27,Y+13+1
000a9d 5aa6      	SUBI R26,LOW(-90)
000a9e 4fbf      	SBCI R27,HIGH(-90)
000a9f 940e 12e2 	CALL SUBOPT_0x2B
000aa1 f03c      	BRLT _0x202008D
000aa2 85ad      	LDD  R26,Y+13
000aa3 85be      	LDD  R27,Y+13+1
000aa4 5aa6      	SUBI R26,LOW(-90)
000aa5 4fbf      	SBCI R27,HIGH(-90)
000aa6 940e 12e7 	CALL SUBOPT_0x2C
000aa8 f40c      	BRGE _0x202008E
                 _0x202008D:
000aa9 c013      	RJMP _0x202008C
                 _0x202008E:
                 _0x2020089:
000aaa 2333      	TST  R19
000aab f012      	BRMI _0x202008F
000aac 940e 12d5 	CALL SUBOPT_0x29
                 _0x202008F:
000aae 81af      	LDD  R26,Y+7
000aaf 30a2      	CPI  R26,LOW(0x2)
000ab0 f020      	BRLO _0x2020091
                +
000ab1 3022     +CPI R18 , LOW ( 2 )
000ab2 e0e0     +LDI R30 , HIGH ( 2 )
000ab3 073e     +CPC R19 , R30
                 	__CPWRN 18,19,2
000ab4 f40c      	BRGE _0x2020092
                 _0x2020091:
000ab5 c007      	RJMP _0x2020090
                 _0x2020092:
000ab6 940e 12d9 	CALL SUBOPT_0x2A
000ab8 f421      	BRNE _0x2020093
000ab9 930a      	ST   -Y,R16
000aba 2fa2      	MOV  R26,R18
000abb 50a1      	SUBI R26,LOW(1)
000abc dcb3      	RCALL _glcd_setpixel
                 _0x2020093:
                 _0x2020090:
                 _0x202008C:
                 _0x202008B:
000abd 85e8      	LDD  R30,Y+8
000abe 78e4      	ANDI R30,LOW(0x84)
000abf 38e4      	CPI  R30,LOW(0x84)
000ac0 f071      	BREQ _0x2020095
000ac1 85e8      	LDD  R30,Y+8
000ac2 78e0      	ANDI R30,LOW(0x80)
000ac3 f4a9      	BRNE _0x2020097
000ac4 85ad      	LDD  R26,Y+13
000ac5 85be      	LDD  R27,Y+13+1
000ac6 e0ee      	LDI  R30,LOW(270)
000ac7 e0f1      	LDI  R31,HIGH(270)
000ac8 940e 12c7 	CALL SUBOPT_0x27
000aca f01c      	BRLT _0x2020099
000acb 940e 12d0 	CALL SUBOPT_0x28
000acd f40c      	BRGE _0x202009A
                 _0x2020099:
000ace c00a      	RJMP _0x2020098
                 _0x202009A:
                 _0x2020095:
000acf 940e 12ec 	CALL SUBOPT_0x2D
000ad1 f038      	BRLO _0x202009B
000ad2 940e 12f3 	CALL SUBOPT_0x2E
000ad4 f421      	BRNE _0x202009C
000ad5 930a      	ST   -Y,R16
000ad6 2fa4      	MOV  R26,R20
000ad7 5faf      	SUBI R26,-LOW(1)
000ad8 dc97      	RCALL _glcd_setpixel
                 _0x202009C:
                 _0x202009B:
                 _0x2020098:
                 _0x2020097:
                 _0x2020087:
000ad9 89aa      	LDD  R26,Y+18
000ada 27bb      	CLR  R27
000adb 89e8      	LDD  R30,Y+16
000adc 940e 128f 	CALL SUBOPT_0x1F
000ade 89a9      	LDD  R26,Y+17
000adf 27bb      	CLR  R27
000ae0 85ef      	LDD  R30,Y+15
000ae1 940e 12b8 	CALL SUBOPT_0x25
000ae3 85ef      	LDD  R30,Y+15
000ae4 940e 12bf 	CALL SUBOPT_0x26
000ae6 f081      	BREQ _0x202009E
000ae7 85e8      	LDD  R30,Y+8
000ae8 78e0      	ANDI R30,LOW(0x80)
000ae9 f4f1      	BRNE _0x20200A0
000aea 85eb      	LDD  R30,Y+11
000aeb 85fc      	LDD  R31,Y+11+1
000aec 85ad      	LDD  R26,Y+13
000aed 85be      	LDD  R27,Y+13+1
000aee 17ae      	CP   R26,R30
000aef 07bf      	CPC  R27,R31
000af0 f02c      	BRLT _0x20200A2
000af1 85e9      	LDD  R30,Y+9
000af2 85fa      	LDD  R31,Y+9+1
000af3 17ea      	CP   R30,R26
000af4 07fb      	CPC  R31,R27
000af5 f40c      	BRGE _0x20200A3
                 _0x20200A2:
000af6 c011      	RJMP _0x20200A1
                 _0x20200A3:
                 _0x202009E:
000af7 2333      	TST  R19
000af8 f07a      	BRMI _0x20200A4
000af9 940e 12d5 	CALL SUBOPT_0x29
000afb 81af      	LDD  R26,Y+7
000afc 30a2      	CPI  R26,LOW(0x2)
000afd f050      	BRLO _0x20200A5
000afe 2fe0      	MOV  R30,R16
000aff 5fee      	SUBI R30,-LOW(2)
000b00 940e 12fc 	CALL SUBOPT_0x2F
000b02 f429      	BRNE _0x20200A6
000b03 2fe0      	MOV  R30,R16
000b04 5fef      	SUBI R30,-LOW(1)
000b05 93ea      	ST   -Y,R30
000b06 2fa2      	MOV  R26,R18
000b07 dc68      	RCALL _glcd_setpixel
                 _0x20200A6:
                 _0x20200A5:
                 _0x20200A4:
                 _0x20200A1:
                 _0x20200A0:
000b08 85e8      	LDD  R30,Y+8
000b09 78e8      	ANDI R30,LOW(0x88)
000b0a 38e8      	CPI  R30,LOW(0x88)
000b0b f071      	BREQ _0x20200A8
000b0c 85e8      	LDD  R30,Y+8
000b0d 78e0      	ANDI R30,LOW(0x80)
000b0e f4c1      	BRNE _0x20200AA
000b0f 85ad      	LDD  R26,Y+13
000b10 85be      	LDD  R27,Y+13+1
000b11 e6e8      	LDI  R30,LOW(360)
000b12 e0f1      	LDI  R31,HIGH(360)
000b13 940e 12c7 	CALL SUBOPT_0x27
000b15 f01c      	BRLT _0x20200AC
000b16 940e 12d0 	CALL SUBOPT_0x28
000b18 f40c      	BRGE _0x20200AD
                 _0x20200AC:
000b19 c00d      	RJMP _0x20200AB
                 _0x20200AD:
                 _0x20200A8:
000b1a 940e 12ec 	CALL SUBOPT_0x2D
000b1c f050      	BRLO _0x20200AE
000b1d 2fe0      	MOV  R30,R16
000b1e 5fee      	SUBI R30,-LOW(2)
000b1f 940e 1304 	CALL SUBOPT_0x30
000b21 f429      	BRNE _0x20200AF
000b22 2fe0      	MOV  R30,R16
000b23 5fef      	SUBI R30,-LOW(1)
000b24 93ea      	ST   -Y,R30
000b25 2fa4      	MOV  R26,R20
000b26 dc49      	RCALL _glcd_setpixel
                 _0x20200AF:
                 _0x20200AE:
                 _0x20200AB:
                 _0x20200AA:
000b27 89aa      	LDD  R26,Y+18
000b28 27bb      	CLR  R27
000b29 89e8      	LDD  R30,Y+16
000b2a e0f0      	LDI  R31,0
000b2b 1bae      	SUB  R26,R30
000b2c 0bbf      	SBC  R27,R31
000b2d 018d      	MOVW R16,R26
000b2e 2311      	TST  R17
000b2f f40a      	BRPL PC+2
000b30 c050      	RJMP _0x20200B0
000b31 85e8      	LDD  R30,Y+8
000b32 78e2      	ANDI R30,LOW(0x82)
000b33 38e2      	CPI  R30,LOW(0x82)
000b34 f071      	BREQ _0x20200B2
000b35 85e8      	LDD  R30,Y+8
000b36 78e0      	ANDI R30,LOW(0x80)
000b37 f509      	BRNE _0x20200B4
000b38 85ad      	LDD  R26,Y+13
000b39 85be      	LDD  R27,Y+13+1
000b3a ebe4      	LDI  R30,LOW(180)
000b3b e0f0      	LDI  R31,HIGH(180)
000b3c 940e 12c7 	CALL SUBOPT_0x27
000b3e f01c      	BRLT _0x20200B6
000b3f 940e 12d0 	CALL SUBOPT_0x28
000b41 f40c      	BRGE _0x20200B7
                 _0x20200B6:
000b42 c016      	RJMP _0x20200B5
                 _0x20200B7:
                 _0x20200B2:
000b43 2333      	TST  R19
000b44 f0a2      	BRMI _0x20200B8
000b45 940e 12d5 	CALL SUBOPT_0x29
000b47 81af      	LDD  R26,Y+7
000b48 30a2      	CPI  R26,LOW(0x2)
000b49 f020      	BRLO _0x20200BA
                +
000b4a 3002     +CPI R16 , LOW ( 2 )
000b4b e0e0     +LDI R30 , HIGH ( 2 )
000b4c 071e     +CPC R17 , R30
                 	__CPWRN 16,17,2
000b4d f40c      	BRGE _0x20200BB
                 _0x20200BA:
000b4e c00a      	RJMP _0x20200B9
                 _0x20200BB:
000b4f 2fe0      	MOV  R30,R16
000b50 50e2      	SUBI R30,LOW(2)
000b51 940e 12fc 	CALL SUBOPT_0x2F
000b53 f429      	BRNE _0x20200BC
000b54 2fe0      	MOV  R30,R16
000b55 50e1      	SUBI R30,LOW(1)
000b56 93ea      	ST   -Y,R30
000b57 2fa2      	MOV  R26,R18
000b58 dc17      	RCALL _glcd_setpixel
                 _0x20200BC:
                 _0x20200B9:
                 _0x20200B8:
                 _0x20200B5:
                 _0x20200B4:
000b59 85e8      	LDD  R30,Y+8
000b5a 78e4      	ANDI R30,LOW(0x84)
000b5b 38e4      	CPI  R30,LOW(0x84)
000b5c f091      	BREQ _0x20200BE
000b5d 85e8      	LDD  R30,Y+8
000b5e 78e0      	ANDI R30,LOW(0x80)
000b5f f509      	BRNE _0x20200C0
000b60 85ad      	LDD  R26,Y+13
000b61 85be      	LDD  R27,Y+13+1
000b62 54ac      	SUBI R26,LOW(-180)
000b63 4fbf      	SBCI R27,HIGH(-180)
000b64 940e 12e2 	CALL SUBOPT_0x2B
000b66 f03c      	BRLT _0x20200C2
000b67 85ad      	LDD  R26,Y+13
000b68 85be      	LDD  R27,Y+13+1
000b69 54ac      	SUBI R26,LOW(-180)
000b6a 4fbf      	SBCI R27,HIGH(-180)
000b6b 940e 12e7 	CALL SUBOPT_0x2C
000b6d f40c      	BRGE _0x20200C3
                 _0x20200C2:
000b6e c012      	RJMP _0x20200C1
                 _0x20200C3:
                 _0x20200BE:
000b6f 940e 12ec 	CALL SUBOPT_0x2D
000b71 f020      	BRLO _0x20200C5
                +
000b72 3002     +CPI R16 , LOW ( 2 )
000b73 e0e0     +LDI R30 , HIGH ( 2 )
000b74 071e     +CPC R17 , R30
                 	__CPWRN 16,17,2
000b75 f40c      	BRGE _0x20200C6
                 _0x20200C5:
000b76 c00a      	RJMP _0x20200C4
                 _0x20200C6:
000b77 2fe0      	MOV  R30,R16
000b78 50e2      	SUBI R30,LOW(2)
000b79 940e 1304 	CALL SUBOPT_0x30
000b7b f429      	BRNE _0x20200C7
000b7c 2fe0      	MOV  R30,R16
000b7d 50e1      	SUBI R30,LOW(1)
000b7e 93ea      	ST   -Y,R30
000b7f 2fa4      	MOV  R26,R20
000b80 dbef      	RCALL _glcd_setpixel
                 _0x20200C7:
                 _0x20200C4:
                 _0x20200C1:
                 _0x20200C0:
                 _0x20200B0:
000b81 940e 16b1 	CALL __LOADLOCR6
000b83 9663      	ADIW R28,19
000b84 9508      	RET
                 ; .FEND
                 _glcd_line2_G101:
                 ; .FSTART _glcd_line2_G101
000b85 93aa      	ST   -Y,R26
000b86 940e 16ac 	CALL __SAVELOCR4
000b88 81af      	LDD  R26,Y+7
000b89 27bb      	CLR  R27
000b8a 81ed      	LDD  R30,Y+5
000b8b e0f0      	LDI  R31,0
000b8c 1bae      	SUB  R26,R30
000b8d 0bbf      	SBC  R27,R31
000b8e dbbd      	RCALL _glcd_clipx
000b8f 2f1e      	MOV  R17,R30
000b90 81af      	LDD  R26,Y+7
000b91 27bb      	CLR  R27
000b92 81ed      	LDD  R30,Y+5
000b93 e0f0      	LDI  R31,0
000b94 0fae      	ADD  R26,R30
000b95 1fbf      	ADC  R27,R31
000b96 dbb5      	RCALL _glcd_clipx
000b97 2f0e      	MOV  R16,R30
000b98 81ae      	LDD  R26,Y+6
000b99 27bb      	CLR  R27
000b9a 81ec      	LDD  R30,Y+4
000b9b e0f0      	LDI  R31,0
000b9c 1bae      	SUB  R26,R30
000b9d 0bbf      	SBC  R27,R31
000b9e dbbf      	RCALL _glcd_clipy
000b9f 2f3e      	MOV  R19,R30
000ba0 81ae      	LDD  R26,Y+6
000ba1 27bb      	CLR  R27
000ba2 81ec      	LDD  R30,Y+4
000ba3 e0f0      	LDI  R31,0
000ba4 0fae      	ADD  R26,R30
000ba5 1fbf      	ADC  R27,R31
000ba6 dbb7      	RCALL _glcd_clipy
000ba7 2f2e      	MOV  R18,R30
000ba8 931a      	ST   -Y,R17
000ba9 933a      	ST   -Y,R19
000baa 930a      	ST   -Y,R16
000bab 2fa3      	MOV  R26,R19
000bac dcef      	RCALL _glcd_line
000bad 931a      	ST   -Y,R17
000bae 932a      	ST   -Y,R18
000baf 930a      	ST   -Y,R16
000bb0 2fa2      	MOV  R26,R18
000bb1 dcea      	RCALL _glcd_line
000bb2 c0a3      	RJMP _0x2120008
                 ; .FEND
                 _glcd_quadrant_G101:
                 ; .FSTART _glcd_quadrant_G101
000bb3 93aa      	ST   -Y,R26
000bb4 940e 16aa 	CALL __SAVELOCR6
000bb6 85a9      	LDD  R26,Y+9
000bb7 38a0      	CPI  R26,LOW(0x80)
000bb8 f418      	BRSH _0x20200C9
000bb9 85a8      	LDD  R26,Y+8
000bba 34a0      	CPI  R26,LOW(0x40)
000bbb f008      	BRLO _0x20200C8
                 _0x20200C9:
000bbc c04f      	RJMP _0x212000A
                 _0x20200C8:
                +
000bbd 9150 01fc+LDS R21 , _glcd_state + ( 8 )
                 	__GETBRMN 21,_glcd_state,8
                 _0x20200CB:
000bbf 2fe5      	MOV  R30,R21
000bc0 5051      	SUBI R21,1
000bc1 30e0      	CPI  R30,0
000bc2 f409      	BRNE PC+2
000bc3 c048      	RJMP _0x20200CD
000bc4 81ef      	LDD  R30,Y+7
000bc5 30e0      	CPI  R30,0
000bc6 f409      	BRNE _0x20200CE
000bc7 c044      	RJMP _0x212000A
                 _0x20200CE:
000bc8 81ef      	LDD  R30,Y+7
000bc9 50e1      	SUBI R30,LOW(1)
000bca 83ef      	STD  Y+7,R30
000bcb 5fef      	SUBI R30,-LOW(1)
000bcc 2f0e      	MOV  R16,R30
000bcd e0f0      	LDI  R31,0
000bce e0a5      	LDI  R26,LOW(5)
000bcf e0b0      	LDI  R27,HIGH(5)
000bd0 1bae      	SUB  R26,R30
000bd1 0bbf      	SBC  R27,R31
000bd2 01fd      	MOVW R30,R26
000bd3 940e 15d8 	CALL __LSLW2
000bd5 940e 15dd 	CALL __ASRW2
000bd7 019f      	MOVW R18,R30
000bd8 e010      	LDI  R17,LOW(0)
                 _0x20200D0:
000bd9 81ae      	LDD  R26,Y+6
000bda 34a0      	CPI  R26,LOW(0x40)
000bdb f459      	BRNE _0x20200D2
000bdc 940e 130c 	CALL SUBOPT_0x31
000bde 931a      	ST   -Y,R17
000bdf 2fa0      	MOV  R26,R16
000be0 dfa4      	RCALL _glcd_line2_G101
000be1 940e 130c 	CALL SUBOPT_0x31
000be3 930a      	ST   -Y,R16
000be4 2fa1      	MOV  R26,R17
000be5 df9f      	RCALL _glcd_line2_G101
000be6 c00f      	RJMP _0x20200D3
                 _0x20200D2:
000be7 940e 130c 	CALL SUBOPT_0x31
000be9 931a      	ST   -Y,R17
000bea 930a      	ST   -Y,R16
000beb 85ea      	LDD  R30,Y+10
000bec e0f0      	LDI  R31,0
000bed 93fa      	ST   -Y,R31
000bee 93ea      	ST   -Y,R30
000bef e0e0      	LDI  R30,LOW(0)
000bf0 e0f0      	LDI  R31,HIGH(0)
000bf1 93fa      	ST   -Y,R31
000bf2 93ea      	ST   -Y,R30
000bf3 e0a0      	LDI  R26,LOW(0)
000bf4 e0b0      	LDI  R27,0
000bf5 de38      	RCALL _glcd_plot8_G101
                 _0x20200D3:
000bf6 5f1f      	SUBI R17,-1
000bf7 2333      	TST  R19
000bf8 f41a      	BRPL _0x20200D4
000bf9 2fe1      	MOV  R30,R17
000bfa e0f0      	LDI  R31,0
000bfb c008      	RJMP _0x202011C
                 _0x20200D4:
000bfc 5001      	SUBI R16,1
000bfd 2fa1      	MOV  R26,R17
000bfe 27bb      	CLR  R27
000bff 2fe0      	MOV  R30,R16
000c00 e0f0      	LDI  R31,0
000c01 1bae      	SUB  R26,R30
000c02 0bbf      	SBC  R27,R31
000c03 01fd      	MOVW R30,R26
                 _0x202011C:
000c04 0fee      	LSL  R30
000c05 1fff      	ROL  R31
000c06 9631      	ADIW R30,1
                +
000c07 0f2e     +ADD R18 , R30
000c08 1f3f     +ADC R19 , R31
                 	__ADDWRR 18,19,30,31
000c09 1701      	CP   R16,R17
000c0a f670      	BRSH _0x20200D0
000c0b cfb3      	RJMP _0x20200CB
                 _0x20200CD:
                 _0x212000A:
000c0c 940e 16b1 	CALL __LOADLOCR6
000c0e 962a      	ADIW R28,10
000c0f 9508      	RET
                 ; .FEND
                 _glcd_circle:
                 ; .FSTART _glcd_circle
000c10 93aa      	ST   -Y,R26
000c11 81ea      	LDD  R30,Y+2
000c12 93ea      	ST   -Y,R30
000c13 81ea      	LDD  R30,Y+2
000c14 93ea      	ST   -Y,R30
000c15 81ea      	LDD  R30,Y+2
000c16 93ea      	ST   -Y,R30
000c17 e8af      	LDI  R26,LOW(143)
000c18 df9a      	RCALL _glcd_quadrant_G101
000c19 940c 1114 	JMP  _0x2120002
                 ; .FEND
                 _glcd_barrel:
                 ; .FSTART _glcd_barrel
000c1b 93aa      	ST   -Y,R26
000c1c 940e 16ac 	CALL __SAVELOCR4
000c1e 81af      	LDD  R26,Y+7
000c1f 38a0      	CPI  R26,LOW(0x80)
000c20 f418      	BRSH _0x20200ED
000c21 81ae      	LDD  R26,Y+6
000c22 34a0      	CPI  R26,LOW(0x40)
000c23 f008      	BRLO _0x20200EC
                 _0x20200ED:
000c24 c031      	RJMP _0x2120008
                 _0x20200EC:
000c25 81ed      	LDD  R30,Y+5
000c26 30e0      	CPI  R30,0
000c27 f019      	BREQ _0x20200F0
000c28 81ec      	LDD  R30,Y+4
000c29 30e0      	CPI  R30,0
000c2a f409      	BRNE _0x20200F1
                 _0x20200F0:
000c2b c02a      	RJMP _0x20200EF
                 _0x20200F1:
000c2c 813e      	LDD  R19,Y+6
000c2d 2fe3      	MOV  R30,R19
000c2e 81ac      	LDD  R26,Y+4
000c2f 0fea      	ADD  R30,R26
000c30 83ec      	STD  Y+4,R30
000c31 81ef      	LDD  R30,Y+7
000c32 81ad      	LDD  R26,Y+5
000c33 0fea      	ADD  R30,R26
000c34 83ed      	STD  Y+5,R30
                 _0x20200F2:
000c35 81ec      	LDD  R30,Y+4
000c36 173e      	CP   R19,R30
000c37 f4f0      	BRSH _0x20200F4
000c38 1be3      	SUB  R30,R19
000c39 2f2e      	MOV  R18,R30
000c3a 3029      	CPI  R18,9
000c3b f008      	BRLO _0x20200F5
000c3c e028      	LDI  R18,LOW(8)
                 _0x20200F5:
000c3d 811f      	LDD  R17,Y+7
                 _0x20200F6:
000c3e 81ed      	LDD  R30,Y+5
000c3f 171e      	CP   R17,R30
000c40 f498      	BRSH _0x20200F8
000c41 1be1      	SUB  R30,R17
000c42 2f0e      	MOV  R16,R30
000c43 3009      	CPI  R16,9
000c44 f008      	BRLO _0x20200F9
000c45 e008      	LDI  R16,LOW(8)
                 _0x20200F9:
000c46 931a      	ST   -Y,R17
000c47 933a      	ST   -Y,R19
000c48 930a      	ST   -Y,R16
000c49 932a      	ST   -Y,R18
000c4a e0e0      	LDI  R30,LOW(0)
000c4b 93ea      	ST   -Y,R30
                +
000c4c e0e5     +LDI R30 , LOW ( _glcd_state + ( 17 ) )
000c4d e0f2     +LDI R31 , HIGH ( _glcd_state + ( 17 ) )
                 	__POINTW1MN _glcd_state,17
000c4e 93fa      	ST   -Y,R31
000c4f 93ea      	ST   -Y,R30
000c50 e0a8      	LDI  R26,LOW(8)
000c51 d91d      	RCALL _glcd_block
000c52 0f10      	ADD  R17,R16
000c53 cfea      	RJMP _0x20200F6
                 _0x20200F8:
000c54 0f32      	ADD  R19,R18
000c55 cfdf      	RJMP _0x20200F2
                 _0x20200F4:
                 _0x20200EF:
                 _0x2120008:
000c56 940e 16b3 	CALL __LOADLOCR4
                 _0x2120009:
000c58 9628      	ADIW R28,8
000c59 9508      	RET
                 ; .FEND
                 _glcd_bar:
                 ; .FSTART _glcd_bar
000c5a 93aa      	ST   -Y,R26
000c5b 01de      	MOVW R26,R28
000c5c dd35      	RCALL _glcd_corners_G101
000c5d 81eb      	LDD  R30,Y+3
000c5e 93ea      	ST   -Y,R30
000c5f 81eb      	LDD  R30,Y+3
000c60 93ea      	ST   -Y,R30
000c61 81ad      	LDD  R26,Y+5
000c62 81eb      	LDD  R30,Y+3
000c63 1bea      	SUB  R30,R26
000c64 5fef      	SUBI R30,-LOW(1)
000c65 93ea      	ST   -Y,R30
000c66 81ad      	LDD  R26,Y+5
000c67 81eb      	LDD  R30,Y+3
000c68 1bea      	SUB  R30,R26
000c69 5fef      	SUBI R30,-LOW(1)
000c6a 2fae      	MOV  R26,R30
000c6b dfaf      	RCALL _glcd_barrel
000c6c 940c 117b 	JMP  _0x2120001
                 ; .FEND
                 	#ifndef __SLEEP_DEFINED__
                 	#endif
                 
                 	.CSEG
                 _put_buff_G103:
                 ; .FSTART _put_buff_G103
000c6e 93ba      	ST   -Y,R27
000c6f 93aa      	ST   -Y,R26
000c70 931a      	ST   -Y,R17
000c71 930a      	ST   -Y,R16
000c72 81aa      	LDD  R26,Y+2
000c73 81bb      	LDD  R27,Y+2+1
000c74 9612      	ADIW R26,2
000c75 940e 1649 	CALL __GETW1P
000c77 9730      	SBIW R30,0
000c78 f129      	BREQ _0x2060010
000c79 81aa      	LDD  R26,Y+2
000c7a 81bb      	LDD  R27,Y+2+1
000c7b 9614      	ADIW R26,4
000c7c 940e 1649 	CALL __GETW1P
000c7e 018f      	MOVW R16,R30
000c7f 9730      	SBIW R30,0
000c80 f061      	BREQ _0x2060012
                +
000c81 3002     +CPI R16 , LOW ( 2 )
000c82 e0e0     +LDI R30 , HIGH ( 2 )
000c83 071e     +CPC R17 , R30
                 	__CPWRN 16,17,2
000c84 f080      	BRLO _0x2060013
000c85 01f8      	MOVW R30,R16
000c86 9731      	SBIW R30,1
000c87 018f      	MOVW R16,R30
                +
000c88 81aa     +LDD R26 , Y + 2
000c89 81bb     +LDD R27 , Y + 2 + 1
000c8a 9614     +ADIW R26 , 4
000c8b 93ed     +ST X + , R30
000c8c 93fc     +ST X , R31
                 	__PUTW1SNS 2,4
                 _0x2060012:
000c8d 81aa      	LDD  R26,Y+2
000c8e 81bb      	LDD  R27,Y+2+1
000c8f 9612      	ADIW R26,2
000c90 940e 1311 	CALL SUBOPT_0x32
000c92 9731      	SBIW R30,1
000c93 81ac      	LDD  R26,Y+4
000c94 83a0      	STD  Z+0,R26
                 _0x2060013:
000c95 81aa      	LDD  R26,Y+2
000c96 81bb      	LDD  R27,Y+2+1
000c97 940e 1649 	CALL __GETW1P
000c99 23ff      	TST  R31
000c9a f012      	BRMI _0x2060014
000c9b 940e 1311 	CALL SUBOPT_0x32
                 _0x2060014:
000c9d c006      	RJMP _0x2060015
                 _0x2060010:
000c9e 81aa      	LDD  R26,Y+2
000c9f 81bb      	LDD  R27,Y+2+1
000ca0 efef      	LDI  R30,LOW(65535)
000ca1 efff      	LDI  R31,HIGH(65535)
000ca2 93ed      	ST   X+,R30
000ca3 93fc      	ST   X,R31
                 _0x2060015:
000ca4 8119      	LDD  R17,Y+1
000ca5 8108      	LDD  R16,Y+0
000ca6 940c 109c 	JMP  _0x2120003
                 ; .FEND
                 __ftoe_G103:
                 ; .FSTART __ftoe_G103
000ca8 940e 1317 	CALL SUBOPT_0x33
000caa e8e0      	LDI  R30,LOW(128)
000cab 83ea      	STD  Y+2,R30
000cac e3ef      	LDI  R30,LOW(63)
000cad 83eb      	STD  Y+3,R30
000cae 940e 16ac 	CALL __SAVELOCR4
000cb0 85ee      	LDD  R30,Y+14
000cb1 85ff      	LDD  R31,Y+14+1
000cb2 3fef      	CPI  R30,LOW(0xFFFF)
000cb3 efaf      	LDI  R26,HIGH(0xFFFF)
000cb4 07fa      	CPC  R31,R26
000cb5 f449      	BRNE _0x2060019
000cb6 85e8      	LDD  R30,Y+8
000cb7 85f9      	LDD  R31,Y+8+1
000cb8 93fa      	ST   -Y,R31
000cb9 93ea      	ST   -Y,R30
                +
000cba eca2     +LDI R26 , LOW ( 2 * _0x2060000 + ( 0 ) )
000cbb e0b2     +LDI R27 , HIGH ( 2 * _0x2060000 + ( 0 ) )
                 	__POINTW2FN _0x2060000,0
000cbc 940e 109e 	CALL _strcpyf
000cbe c0b7      	RJMP _0x2120007
                 _0x2060019:
000cbf 3fef      	CPI  R30,LOW(0x7FFF)
000cc0 e7af      	LDI  R26,HIGH(0x7FFF)
000cc1 07fa      	CPC  R31,R26
000cc2 f449      	BRNE _0x2060018
000cc3 85e8      	LDD  R30,Y+8
000cc4 85f9      	LDD  R31,Y+8+1
000cc5 93fa      	ST   -Y,R31
000cc6 93ea      	ST   -Y,R30
                +
000cc7 eca3     +LDI R26 , LOW ( 2 * _0x2060000 + ( 1 ) )
000cc8 e0b2     +LDI R27 , HIGH ( 2 * _0x2060000 + ( 1 ) )
                 	__POINTW2FN _0x2060000,1
000cc9 940e 109e 	CALL _strcpyf
000ccb c0aa      	RJMP _0x2120007
                 _0x2060018:
000ccc 85ab      	LDD  R26,Y+11
000ccd 30a7      	CPI  R26,LOW(0x7)
000cce f010      	BRLO _0x206001B
000ccf e0e6      	LDI  R30,LOW(6)
000cd0 87eb      	STD  Y+11,R30
                 _0x206001B:
000cd1 851b      	LDD  R17,Y+11
                 _0x206001C:
000cd2 2fe1      	MOV  R30,R17
000cd3 5011      	SUBI R17,1
000cd4 30e0      	CPI  R30,0
000cd5 f019      	BREQ _0x206001E
000cd6 940e 131e 	CALL SUBOPT_0x34
000cd8 cff9      	RJMP _0x206001C
                 _0x206001E:
                +
000cd9 85ec     +LDD R30 , Y + 12
000cda 85fd     +LDD R31 , Y + 12 + 1
000cdb 856e     +LDD R22 , Y + 12 + 2
000cdc 857f     +LDD R23 , Y + 12 + 3
                 	__GETD1S 12
000cdd 940e 16a2 	CALL __CPD10
000cdf f421      	BRNE _0x206001F
000ce0 e030      	LDI  R19,LOW(0)
000ce1 940e 131e 	CALL SUBOPT_0x34
000ce3 c02d      	RJMP _0x2060020
                 _0x206001F:
000ce4 853b      	LDD  R19,Y+11
000ce5 940e 132d 	CALL SUBOPT_0x35
000ce7 f009      	BREQ PC+2
000ce8 f408      	BRCC PC+2
000ce9 c00b      	RJMP _0x2060021
000cea 940e 131e 	CALL SUBOPT_0x34
                 _0x2060022:
000cec 940e 132d 	CALL SUBOPT_0x35
000cee f028      	BRLO _0x2060024
000cef 940e 1338 	CALL SUBOPT_0x36
000cf1 940e 133d 	CALL SUBOPT_0x37
000cf3 cff8      	RJMP _0x2060022
                 _0x2060024:
000cf4 c00d      	RJMP _0x2060025
                 _0x2060021:
                 _0x2060026:
000cf5 940e 132d 	CALL SUBOPT_0x35
000cf7 f440      	BRSH _0x2060028
000cf8 940e 1338 	CALL SUBOPT_0x36
000cfa 940e 1349 	CALL SUBOPT_0x38
000cfc 940e 1350 	CALL SUBOPT_0x39
000cfe 5031      	SUBI R19,LOW(1)
000cff cff5      	RJMP _0x2060026
                 _0x2060028:
000d00 940e 131e 	CALL SUBOPT_0x34
                 _0x2060025:
                +
000d02 85ec     +LDD R30 , Y + 12
000d03 85fd     +LDD R31 , Y + 12 + 1
000d04 856e     +LDD R22 , Y + 12 + 2
000d05 857f     +LDD R23 , Y + 12 + 3
                 	__GETD1S 12
000d06 940e 1355 	CALL SUBOPT_0x3A
000d08 940e 1350 	CALL SUBOPT_0x39
000d0a 940e 132d 	CALL SUBOPT_0x35
000d0c f020      	BRLO _0x2060029
000d0d 940e 1338 	CALL SUBOPT_0x36
000d0f 940e 133d 	CALL SUBOPT_0x37
                 _0x2060029:
                 _0x2060020:
000d11 e010      	LDI  R17,LOW(0)
                 _0x206002A:
000d12 85eb      	LDD  R30,Y+11
000d13 17e1      	CP   R30,R17
000d14 f1a8      	BRLO _0x206002C
                +
000d15 81ac     +LDD R26 , Y + 4
000d16 81bd     +LDD R27 , Y + 4 + 1
000d17 818e     +LDD R24 , Y + 4 + 2
000d18 819f     +LDD R25 , Y + 4 + 3
                 	__GETD2S 4
000d19 940e 135c 	CALL SUBOPT_0x3B
000d1b 940e 1355 	CALL SUBOPT_0x3A
000d1d 01df      	MOVW R26,R30
000d1e 01cb      	MOVW R24,R22
000d1f 940e 1166 	CALL _floor
                +
000d21 83ec     +STD Y + 4 , R30
000d22 83fd     +STD Y + 4 + 1 , R31
000d23 836e     +STD Y + 4 + 2 , R22
000d24 837f     +STD Y + 4 + 3 , R23
                 	__PUTD1S 4
000d25 940e 1338 	CALL SUBOPT_0x36
000d27 940e 1553 	CALL __DIVF21
000d29 940e 1442 	CALL __CFD1U
000d2b 2f0e      	MOV  R16,R30
000d2c 940e 1363 	CALL SUBOPT_0x3C
000d2e 940e 136a 	CALL SUBOPT_0x3D
000d30 27ff      	CLR  R31
000d31 2766      	CLR  R22
000d32 2777      	CLR  R23
000d33 940e 147b 	CALL __CDF1
                +
000d35 81ac     +LDD R26 , Y + 4
000d36 81bd     +LDD R27 , Y + 4 + 1
000d37 818e     +LDD R24 , Y + 4 + 2
000d38 819f     +LDD R25 , Y + 4 + 3
                 	__GETD2S 4
000d39 940e 1505 	CALL __MULF12
000d3b 940e 1338 	CALL SUBOPT_0x36
000d3d 940e 136f 	CALL SUBOPT_0x3E
000d3f 940e 1350 	CALL SUBOPT_0x39
000d41 2fe1      	MOV  R30,R17
000d42 5f1f      	SUBI R17,-1
000d43 30e0      	CPI  R30,0
000d44 f669      	BRNE _0x206002A
000d45 940e 1363 	CALL SUBOPT_0x3C
000d47 e2ee      	LDI  R30,LOW(46)
000d48 93ec      	ST   X,R30
000d49 cfc8      	RJMP _0x206002A
                 _0x206002C:
000d4a 940e 1374 	CALL SUBOPT_0x3F
000d4c 9731      	SBIW R30,1
000d4d 85aa      	LDD  R26,Y+10
000d4e 83a0      	STD  Z+0,R26
000d4f 3030      	CPI  R19,0
000d50 f42c      	BRGE _0x206002E
000d51 9531      	NEG  R19
000d52 85a8      	LDD  R26,Y+8
000d53 85b9      	LDD  R27,Y+8+1
000d54 e2ed      	LDI  R30,LOW(45)
000d55 c003      	RJMP _0x2060113
                 _0x206002E:
000d56 85a8      	LDD  R26,Y+8
000d57 85b9      	LDD  R27,Y+8+1
000d58 e2eb      	LDI  R30,LOW(43)
                 _0x2060113:
000d59 93ec      	ST   X,R30
000d5a 940e 1374 	CALL SUBOPT_0x3F
000d5c 940e 1374 	CALL SUBOPT_0x3F
000d5e 9731      	SBIW R30,1
000d5f 01bf      	MOVW R22,R30
000d60 2fa3      	MOV  R26,R19
000d61 e0ea      	LDI  R30,LOW(10)
000d62 940e 1603 	CALL __DIVB21
000d64 5de0      	SUBI R30,-LOW(48)
000d65 01db      	MOVW R26,R22
000d66 93ec      	ST   X,R30
000d67 940e 1374 	CALL SUBOPT_0x3F
000d69 9731      	SBIW R30,1
000d6a 01bf      	MOVW R22,R30
000d6b 2fa3      	MOV  R26,R19
000d6c e0ea      	LDI  R30,LOW(10)
000d6d 940e 162d 	CALL __MODB21
000d6f 5de0      	SUBI R30,-LOW(48)
000d70 01db      	MOVW R26,R22
000d71 93ec      	ST   X,R30
000d72 85a8      	LDD  R26,Y+8
000d73 85b9      	LDD  R27,Y+8+1
000d74 e0e0      	LDI  R30,LOW(0)
000d75 93ec      	ST   X,R30
                 _0x2120007:
000d76 940e 16b3 	CALL __LOADLOCR4
000d78 9660      	ADIW R28,16
000d79 9508      	RET
                 ; .FEND
                 __print_G103:
                 ; .FSTART __print_G103
000d7a 93ba      	ST   -Y,R27
000d7b 93aa      	ST   -Y,R26
000d7c 97ef      	SBIW R28,63
000d7d 9761      	SBIW R28,17
000d7e 940e 16aa 	CALL __SAVELOCR6
000d80 e010      	LDI  R17,0
                +
000d81 01fe     +MOVW R30 , R28
000d82 5ae8     +SUBI R30 , LOW ( - 88 )
000d83 4fff     +SBCI R31 , HIGH ( - 88 )
000d84 9001     +LD R0 , Z +
000d85 81f0     +LD R31 , Z
000d86 2de0     +MOV R30 , R0
                 	__GETW1SX 88
000d87 87e8      	STD  Y+8,R30
000d88 87f9      	STD  Y+8+1,R31
                +
000d89 01fe     +MOVW R30 , R28
000d8a 5aea     +SUBI R30 , LOW ( - 86 )
000d8b 4fff     +SBCI R31 , HIGH ( - 86 )
000d8c 9001     +LD R0 , Z +
000d8d 81f0     +LD R31 , Z
000d8e 2de0     +MOV R30 , R0
                 	__GETW1SX 86
000d8f 83ee      	STD  Y+6,R30
000d90 83ff      	STD  Y+6+1,R31
000d91 81ae      	LDD  R26,Y+6
000d92 81bf      	LDD  R27,Y+6+1
000d93 e0e0      	LDI  R30,LOW(0)
000d94 e0f0      	LDI  R31,HIGH(0)
000d95 93ed      	ST   X+,R30
000d96 93fc      	ST   X,R31
                 _0x2060030:
000d97 01de      	MOVW R26,R28
000d98 5aa4      	SUBI R26,LOW(-(92))
000d99 4fbf      	SBCI R27,HIGH(-(92))
000d9a 940e 1311 	CALL SUBOPT_0x32
000d9c 9731      	SBIW R30,1
000d9d 91e4      	LPM  R30,Z
000d9e 2f2e      	MOV  R18,R30
000d9f 30e0      	CPI  R30,0
000da0 f409      	BRNE PC+2
000da1 c1e9      	RJMP _0x2060032
000da2 2fe1      	MOV  R30,R17
000da3 30e0      	CPI  R30,0
000da4 f439      	BRNE _0x2060036
000da5 3225      	CPI  R18,37
000da6 f411      	BRNE _0x2060037
000da7 e011      	LDI  R17,LOW(1)
000da8 c002      	RJMP _0x2060038
                 _0x2060037:
000da9 940e 137a 	CALL SUBOPT_0x40
                 _0x2060038:
000dab c1de      	RJMP _0x2060035
                 _0x2060036:
000dac 30e1      	CPI  R30,LOW(0x1)
000dad f4c1      	BRNE _0x2060039
000dae 3225      	CPI  R18,37
000daf f419      	BRNE _0x206003A
000db0 940e 137a 	CALL SUBOPT_0x40
000db2 c1d6      	RJMP _0x2060114
                 _0x206003A:
000db3 e012      	LDI  R17,LOW(2)
000db4 e0e0      	LDI  R30,LOW(0)
000db5 8bed      	STD  Y+21,R30
000db6 e000      	LDI  R16,LOW(0)
000db7 322d      	CPI  R18,45
000db8 f411      	BRNE _0x206003B
000db9 e001      	LDI  R16,LOW(1)
000dba c1cf      	RJMP _0x2060035
                 _0x206003B:
000dbb 322b      	CPI  R18,43
000dbc f419      	BRNE _0x206003C
000dbd e2eb      	LDI  R30,LOW(43)
000dbe 8bed      	STD  Y+21,R30
000dbf c1ca      	RJMP _0x2060035
                 _0x206003C:
000dc0 3220      	CPI  R18,32
000dc1 f419      	BRNE _0x206003D
000dc2 e2e0      	LDI  R30,LOW(32)
000dc3 8bed      	STD  Y+21,R30
000dc4 c1c5      	RJMP _0x2060035
                 _0x206003D:
000dc5 c002      	RJMP _0x206003E
                 _0x2060039:
000dc6 30e2      	CPI  R30,LOW(0x2)
000dc7 f439      	BRNE _0x206003F
                 _0x206003E:
000dc8 e050      	LDI  R21,LOW(0)
000dc9 e013      	LDI  R17,LOW(3)
000dca 3320      	CPI  R18,48
000dcb f411      	BRNE _0x2060040
000dcc 6800      	ORI  R16,LOW(128)
000dcd c1bc      	RJMP _0x2060035
                 _0x2060040:
000dce c002      	RJMP _0x2060041
                 _0x206003F:
000dcf 30e3      	CPI  R30,LOW(0x3)
000dd0 f491      	BRNE _0x2060042
                 _0x2060041:
000dd1 3320      	CPI  R18,48
000dd2 f010      	BRLO _0x2060044
000dd3 332a      	CPI  R18,58
000dd4 f008      	BRLO _0x2060045
                 _0x2060044:
000dd5 c007      	RJMP _0x2060043
                 _0x2060045:
000dd6 e0aa      	LDI  R26,LOW(10)
000dd7 9f5a      	MUL  R21,R26
000dd8 2d50      	MOV  R21,R0
000dd9 2fe2      	MOV  R30,R18
000dda 53e0      	SUBI R30,LOW(48)
000ddb 0f5e      	ADD  R21,R30
000ddc c1ad      	RJMP _0x2060035
                 _0x2060043:
000ddd e040      	LDI  R20,LOW(0)
000dde 322e      	CPI  R18,46
000ddf f411      	BRNE _0x2060046
000de0 e014      	LDI  R17,LOW(4)
000de1 c1a8      	RJMP _0x2060035
                 _0x2060046:
000de2 c00f      	RJMP _0x2060047
                 _0x2060042:
000de3 30e4      	CPI  R30,LOW(0x4)
000de4 f499      	BRNE _0x2060049
000de5 3320      	CPI  R18,48
000de6 f010      	BRLO _0x206004B
000de7 332a      	CPI  R18,58
000de8 f008      	BRLO _0x206004C
                 _0x206004B:
000de9 c008      	RJMP _0x206004A
                 _0x206004C:
000dea 6200      	ORI  R16,LOW(32)
000deb e0aa      	LDI  R26,LOW(10)
000dec 9f4a      	MUL  R20,R26
000ded 2d40      	MOV  R20,R0
000dee 2fe2      	MOV  R30,R18
000def 53e0      	SUBI R30,LOW(48)
000df0 0f4e      	ADD  R20,R30
000df1 c198      	RJMP _0x2060035
                 _0x206004A:
                 _0x2060047:
000df2 362c      	CPI  R18,108
000df3 f419      	BRNE _0x206004D
000df4 6002      	ORI  R16,LOW(2)
000df5 e015      	LDI  R17,LOW(5)
000df6 c193      	RJMP _0x2060035
                 _0x206004D:
000df7 c003      	RJMP _0x206004E
                 _0x2060049:
000df8 30e5      	CPI  R30,LOW(0x5)
000df9 f009      	BREQ PC+2
000dfa c18f      	RJMP _0x2060035
                 _0x206004E:
000dfb 2fe2      	MOV  R30,R18
000dfc 36e3      	CPI  R30,LOW(0x63)
000dfd f459      	BRNE _0x2060053
000dfe 940e 1381 	CALL SUBOPT_0x41
000e00 940e 1388 	CALL SUBOPT_0x42
000e02 940e 1381 	CALL SUBOPT_0x41
000e04 81a4      	LDD  R26,Z+4
000e05 93aa      	ST   -Y,R26
000e06 940e 138f 	CALL SUBOPT_0x43
000e08 c180      	RJMP _0x2060054
                 _0x2060053:
000e09 34e5      	CPI  R30,LOW(0x45)
000e0a f011      	BREQ _0x2060057
000e0b 36e5      	CPI  R30,LOW(0x65)
000e0c f409      	BRNE _0x2060058
                 _0x2060057:
000e0d c003      	RJMP _0x2060059
                 _0x2060058:
000e0e 36e6      	CPI  R30,LOW(0x66)
000e0f f009      	BREQ PC+2
000e10 c048      	RJMP _0x206005A
                 _0x2060059:
000e11 01fe      	MOVW R30,R28
000e12 9676      	ADIW R30,22
000e13 87ee      	STD  Y+14,R30
000e14 87ff      	STD  Y+14+1,R31
000e15 940e 1395 	CALL SUBOPT_0x44
000e17 940e 164d 	CALL __GETD1P
000e19 940e 139c 	CALL SUBOPT_0x45
000e1b 940e 13a1 	CALL SUBOPT_0x46
000e1d 85ad      	LDD  R26,Y+13
000e1e 23aa      	TST  R26
000e1f f032      	BRMI _0x206005B
000e20 89ad      	LDD  R26,Y+21
000e21 32ab      	CPI  R26,LOW(0x2B)
000e22 f059      	BREQ _0x206005D
000e23 32a0      	CPI  R26,LOW(0x20)
000e24 f081      	BREQ _0x206005F
000e25 c017      	RJMP _0x2060060
                 _0x206005B:
000e26 940e 13a3 	CALL SUBOPT_0x47
000e28 940e 140f 	CALL __ANEGF1
000e2a 940e 139c 	CALL SUBOPT_0x45
000e2c e2ed      	LDI  R30,LOW(45)
000e2d 8bed      	STD  Y+21,R30
                 _0x206005D:
000e2e ff07      	SBRS R16,7
000e2f c005      	RJMP _0x2060061
000e30 89ed      	LDD  R30,Y+21
000e31 93ea      	ST   -Y,R30
000e32 940e 138f 	CALL SUBOPT_0x43
000e34 c008      	RJMP _0x2060062
                 _0x2060061:
                 _0x206005F:
000e35 85ee      	LDD  R30,Y+14
000e36 85ff      	LDD  R31,Y+14+1
000e37 9631      	ADIW R30,1
000e38 87ee      	STD  Y+14,R30
000e39 87ff      	STD  Y+14+1,R31
000e3a 9731      	SBIW R30,1
000e3b 89ad      	LDD  R26,Y+21
000e3c 83a0      	STD  Z+0,R26
                 _0x2060062:
                 _0x2060060:
000e3d ff05      	SBRS R16,5
000e3e e046      	LDI  R20,LOW(6)
000e3f 3626      	CPI  R18,102
000e40 f451      	BRNE _0x2060064
000e41 940e 13a3 	CALL SUBOPT_0x47
000e43 940e 1662 	CALL __PUTPARD1
000e45 934a      	ST   -Y,R20
000e46 89ab      	LDD  R26,Y+19
000e47 89bc      	LDD  R27,Y+19+1
000e48 940e 0fc8 	CALL _ftoa
000e4a c009      	RJMP _0x2060065
                 _0x2060064:
000e4b 940e 13a3 	CALL SUBOPT_0x47
000e4d 940e 1662 	CALL __PUTPARD1
000e4f 934a      	ST   -Y,R20
000e50 932a      	ST   -Y,R18
000e51 89ac      	LDD  R26,Y+20
000e52 89bd      	LDD  R27,Y+20+1
000e53 de54      	RCALL __ftoe_G103
                 _0x2060065:
000e54 01fe      	MOVW R30,R28
000e55 9676      	ADIW R30,22
000e56 940e 13a8 	CALL SUBOPT_0x48
000e58 c01e      	RJMP _0x2060066
                 _0x206005A:
000e59 37e3      	CPI  R30,LOW(0x73)
000e5a f439      	BRNE _0x2060068
000e5b 940e 13a1 	CALL SUBOPT_0x46
000e5d 940e 13b0 	CALL SUBOPT_0x49
000e5f 940e 13a8 	CALL SUBOPT_0x48
000e61 c00e      	RJMP _0x2060069
                 _0x2060068:
000e62 37e0      	CPI  R30,LOW(0x70)
000e63 f4c1      	BRNE _0x206006B
000e64 940e 13a1 	CALL SUBOPT_0x46
000e66 940e 13b0 	CALL SUBOPT_0x49
000e68 87ee      	STD  Y+14,R30
000e69 87ff      	STD  Y+14+1,R31
000e6a 85ae      	LDD  R26,Y+14
000e6b 85bf      	LDD  R27,Y+14+1
000e6c 940e 10b7 	CALL _strlenf
000e6e 2f1e      	MOV  R17,R30
000e6f 6008      	ORI  R16,LOW(8)
                 _0x2060069:
000e70 770f      	ANDI R16,LOW(127)
000e71 3040      	CPI  R20,0
000e72 f011      	BREQ _0x206006D
000e73 1741      	CP   R20,R17
000e74 f008      	BRLO _0x206006E
                 _0x206006D:
000e75 c001      	RJMP _0x206006C
                 _0x206006E:
000e76 2f14      	MOV  R17,R20
                 _0x206006C:
                 _0x2060066:
000e77 e040      	LDI  R20,LOW(0)
000e78 e0e0      	LDI  R30,LOW(0)
000e79 8bec      	STD  Y+20,R30
000e7a e030      	LDI  R19,LOW(0)
000e7b c06d      	RJMP _0x206006F
                 _0x206006B:
000e7c 36e4      	CPI  R30,LOW(0x64)
000e7d f011      	BREQ _0x2060072
000e7e 36e9      	CPI  R30,LOW(0x69)
000e7f f411      	BRNE _0x2060073
                 _0x2060072:
000e80 6004      	ORI  R16,LOW(4)
000e81 c002      	RJMP _0x2060074
                 _0x2060073:
000e82 37e5      	CPI  R30,LOW(0x75)
000e83 f4a1      	BRNE _0x2060075
                 _0x2060074:
000e84 e0ea      	LDI  R30,LOW(10)
000e85 8bec      	STD  Y+20,R30
000e86 ff01      	SBRS R16,1
000e87 c008      	RJMP _0x2060076
                +
000e88 e0e0     +LDI R30 , LOW ( 0x3B9ACA00 )
000e89 ecfa     +LDI R31 , HIGH ( 0x3B9ACA00 )
000e8a e96a     +LDI R22 , BYTE3 ( 0x3B9ACA00 )
000e8b e37b     +LDI R23 , BYTE4 ( 0x3B9ACA00 )
                 	__GETD1N 0x3B9ACA00
000e8c 940e 13b5 	CALL SUBOPT_0x4A
000e8e e01a      	LDI  R17,LOW(10)
000e8f c022      	RJMP _0x2060077
                 _0x2060076:
                +
000e90 e1e0     +LDI R30 , LOW ( 0x2710 )
000e91 e2f7     +LDI R31 , HIGH ( 0x2710 )
000e92 e060     +LDI R22 , BYTE3 ( 0x2710 )
000e93 e070     +LDI R23 , BYTE4 ( 0x2710 )
                 	__GETD1N 0x2710
000e94 940e 13b5 	CALL SUBOPT_0x4A
000e96 e015      	LDI  R17,LOW(5)
000e97 c01a      	RJMP _0x2060077
                 _0x2060075:
000e98 35e8      	CPI  R30,LOW(0x58)
000e99 f411      	BRNE _0x2060079
000e9a 6008      	ORI  R16,LOW(8)
000e9b c003      	RJMP _0x206007A
                 _0x2060079:
000e9c 37e8      	CPI  R30,LOW(0x78)
000e9d f009      	BREQ PC+2
000e9e c0ea      	RJMP _0x20600B8
                 _0x206007A:
000e9f e1e0      	LDI  R30,LOW(16)
000ea0 8bec      	STD  Y+20,R30
000ea1 ff01      	SBRS R16,1
000ea2 c008      	RJMP _0x206007C
                +
000ea3 e0e0     +LDI R30 , LOW ( 0x10000000 )
000ea4 e0f0     +LDI R31 , HIGH ( 0x10000000 )
000ea5 e060     +LDI R22 , BYTE3 ( 0x10000000 )
000ea6 e170     +LDI R23 , BYTE4 ( 0x10000000 )
                 	__GETD1N 0x10000000
000ea7 940e 13b5 	CALL SUBOPT_0x4A
000ea9 e018      	LDI  R17,LOW(8)
000eaa c007      	RJMP _0x2060077
                 _0x206007C:
                +
000eab e0e0     +LDI R30 , LOW ( 0x1000 )
000eac e1f0     +LDI R31 , HIGH ( 0x1000 )
000ead e060     +LDI R22 , BYTE3 ( 0x1000 )
000eae e070     +LDI R23 , BYTE4 ( 0x1000 )
                 	__GETD1N 0x1000
000eaf 940e 13b5 	CALL SUBOPT_0x4A
000eb1 e014      	LDI  R17,LOW(4)
                 _0x2060077:
000eb2 3040      	CPI  R20,0
000eb3 f011      	BREQ _0x206007D
000eb4 770f      	ANDI R16,LOW(127)
000eb5 c001      	RJMP _0x206007E
                 _0x206007D:
000eb6 e041      	LDI  R20,LOW(1)
                 _0x206007E:
000eb7 ff01      	SBRS R16,1
000eb8 c008      	RJMP _0x206007F
000eb9 940e 13a1 	CALL SUBOPT_0x46
000ebb 940e 1395 	CALL SUBOPT_0x44
000ebd 9614      	ADIW R26,4
000ebe 940e 164d 	CALL __GETD1P
000ec0 c00f      	RJMP _0x2060115
                 _0x206007F:
000ec1 ff02      	SBRS R16,2
000ec2 c007      	RJMP _0x2060081
000ec3 940e 13a1 	CALL SUBOPT_0x46
000ec5 940e 13b0 	CALL SUBOPT_0x49
000ec7 940e 15e8 	CALL __CWD1
000ec9 c006      	RJMP _0x2060115
                 _0x2060081:
000eca 940e 13a1 	CALL SUBOPT_0x46
000ecc 940e 13b0 	CALL SUBOPT_0x49
000ece 2766      	CLR  R22
000ecf 2777      	CLR  R23
                 _0x2060115:
                +
000ed0 87ea     +STD Y + 10 , R30
000ed1 87fb     +STD Y + 10 + 1 , R31
000ed2 876c     +STD Y + 10 + 2 , R22
000ed3 877d     +STD Y + 10 + 3 , R23
                 	__PUTD1S 10
000ed4 ff02      	SBRS R16,2
000ed5 c012      	RJMP _0x2060083
000ed6 85ad      	LDD  R26,Y+13
000ed7 23aa      	TST  R26
000ed8 f442      	BRPL _0x2060084
000ed9 940e 13a3 	CALL SUBOPT_0x47
000edb 940e 15c0 	CALL __ANEGD1
000edd 940e 139c 	CALL SUBOPT_0x45
000edf e2ed      	LDI  R30,LOW(45)
000ee0 8bed      	STD  Y+21,R30
                 _0x2060084:
000ee1 89ed      	LDD  R30,Y+21
000ee2 30e0      	CPI  R30,0
000ee3 f019      	BREQ _0x2060085
000ee4 5f1f      	SUBI R17,-LOW(1)
000ee5 5f4f      	SUBI R20,-LOW(1)
000ee6 c001      	RJMP _0x2060086
                 _0x2060085:
000ee7 7f0b      	ANDI R16,LOW(251)
                 _0x2060086:
                 _0x2060083:
000ee8 2f34      	MOV  R19,R20
                 _0x206006F:
000ee9 fd00      	SBRC R16,0
000eea c014      	RJMP _0x2060087
                 _0x2060088:
000eeb 1715      	CP   R17,R21
000eec f410      	BRSH _0x206008B
000eed 1735      	CP   R19,R21
000eee f008      	BRLO _0x206008C
                 _0x206008B:
000eef c00f      	RJMP _0x206008A
                 _0x206008C:
000ef0 ff07      	SBRS R16,7
000ef1 c008      	RJMP _0x206008D
000ef2 ff02      	SBRS R16,2
000ef3 c004      	RJMP _0x206008E
000ef4 7f0b      	ANDI R16,LOW(251)
000ef5 892d      	LDD  R18,Y+21
000ef6 5011      	SUBI R17,LOW(1)
000ef7 c001      	RJMP _0x206008F
                 _0x206008E:
000ef8 e320      	LDI  R18,LOW(48)
                 _0x206008F:
000ef9 c001      	RJMP _0x2060090
                 _0x206008D:
000efa e220      	LDI  R18,LOW(32)
                 _0x2060090:
000efb 940e 137a 	CALL SUBOPT_0x40
000efd 5051      	SUBI R21,LOW(1)
000efe cfec      	RJMP _0x2060088
                 _0x206008A:
                 _0x2060087:
                 _0x2060091:
000eff 1714      	CP   R17,R20
000f00 f490      	BRSH _0x2060093
000f01 6100      	ORI  R16,LOW(16)
000f02 ff02      	SBRS R16,2
000f03 c006      	RJMP _0x2060094
000f04 940e 13ba 	CALL SUBOPT_0x4B
000f06 f009      	BREQ _0x2060095
000f07 5051      	SUBI R21,LOW(1)
                 _0x2060095:
000f08 5011      	SUBI R17,LOW(1)
000f09 5041      	SUBI R20,LOW(1)
                 _0x2060094:
000f0a e3e0      	LDI  R30,LOW(48)
000f0b 93ea      	ST   -Y,R30
000f0c 940e 138f 	CALL SUBOPT_0x43
000f0e 3050      	CPI  R21,0
000f0f f009      	BREQ _0x2060096
000f10 5051      	SUBI R21,LOW(1)
                 _0x2060096:
000f11 5041      	SUBI R20,LOW(1)
000f12 cfec      	RJMP _0x2060091
                 _0x2060093:
000f13 2f31      	MOV  R19,R17
000f14 89ec      	LDD  R30,Y+20
000f15 30e0      	CPI  R30,0
000f16 f4b9      	BRNE _0x2060097
                 _0x2060098:
000f17 3030      	CPI  R19,0
000f18 f0a1      	BREQ _0x206009A
000f19 ff03      	SBRS R16,3
000f1a c006      	RJMP _0x206009B
000f1b 85ee      	LDD  R30,Y+14
000f1c 85ff      	LDD  R31,Y+14+1
000f1d 9125      	LPM  R18,Z+
000f1e 87ee      	STD  Y+14,R30
000f1f 87ff      	STD  Y+14+1,R31
000f20 c005      	RJMP _0x206009C
                 _0x206009B:
000f21 85ae      	LDD  R26,Y+14
000f22 85bf      	LDD  R27,Y+14+1
000f23 912d      	LD   R18,X+
000f24 87ae      	STD  Y+14,R26
000f25 87bf      	STD  Y+14+1,R27
                 _0x206009C:
000f26 940e 137a 	CALL SUBOPT_0x40
000f28 3050      	CPI  R21,0
000f29 f009      	BREQ _0x206009D
000f2a 5051      	SUBI R21,LOW(1)
                 _0x206009D:
000f2b 5031      	SUBI R19,LOW(1)
000f2c cfea      	RJMP _0x2060098
                 _0x206009A:
000f2d c051      	RJMP _0x206009E
                 _0x2060097:
                 _0x20600A0:
000f2e 940e 13cc 	CALL SUBOPT_0x4C
000f30 940e 1608 	CALL __DIVD21U
000f32 2f2e      	MOV  R18,R30
000f33 302a      	CPI  R18,10
000f34 f030      	BRLO _0x20600A2
000f35 ff03      	SBRS R16,3
000f36 c002      	RJMP _0x20600A3
000f37 5c29      	SUBI R18,-LOW(55)
000f38 c001      	RJMP _0x20600A4
                 _0x20600A3:
000f39 5a29      	SUBI R18,-LOW(87)
                 _0x20600A4:
000f3a c001      	RJMP _0x20600A5
                 _0x20600A2:
000f3b 5d20      	SUBI R18,-LOW(48)
                 _0x20600A5:
000f3c fd04      	SBRC R16,4
000f3d c021      	RJMP _0x20600A7
000f3e 3321      	CPI  R18,49
000f3f f460      	BRSH _0x20600A9
                +
000f40 89a8     +LDD R26 , Y + 16
000f41 89b9     +LDD R27 , Y + 16 + 1
000f42 898a     +LDD R24 , Y + 16 + 2
000f43 899b     +LDD R25 , Y + 16 + 3
                 	__GETD2S 16
                +
000f44 30a1     +CPI R26 , LOW ( 0x1 )
000f45 e0e0     +LDI R30 , HIGH ( 0x1 )
000f46 07be     +CPC R27 , R30
000f47 e0e0     +LDI R30 , BYTE3 ( 0x1 )
000f48 078e     +CPC R24 , R30
000f49 e0e0     +LDI R30 , BYTE4 ( 0x1 )
000f4a 079e     +CPC R25 , R30
                 	__CPD2N 0x1
000f4b f409      	BRNE _0x20600A8
                 _0x20600A9:
000f4c c00b      	RJMP _0x20600AB
                 _0x20600A8:
000f4d 1743      	CP   R20,R19
000f4e f440      	BRSH _0x2060116
000f4f 1753      	CP   R21,R19
000f50 f010      	BRLO _0x20600AE
000f51 ff00      	SBRS R16,0
000f52 c001      	RJMP _0x20600AF
                 _0x20600AE:
000f53 c010      	RJMP _0x20600AD
                 _0x20600AF:
000f54 e220      	LDI  R18,LOW(32)
000f55 ff07      	SBRS R16,7
000f56 c008      	RJMP _0x20600B0
                 _0x2060116:
000f57 e320      	LDI  R18,LOW(48)
                 _0x20600AB:
000f58 6100      	ORI  R16,LOW(16)
000f59 ff02      	SBRS R16,2
000f5a c004      	RJMP _0x20600B1
000f5b 940e 13ba 	CALL SUBOPT_0x4B
000f5d f009      	BREQ _0x20600B2
000f5e 5051      	SUBI R21,LOW(1)
                 _0x20600B2:
                 _0x20600B1:
                 _0x20600B0:
                 _0x20600A7:
000f5f 940e 137a 	CALL SUBOPT_0x40
000f61 3050      	CPI  R21,0
000f62 f009      	BREQ _0x20600B3
000f63 5051      	SUBI R21,LOW(1)
                 _0x20600B3:
                 _0x20600AD:
000f64 5031      	SUBI R19,LOW(1)
000f65 940e 13cc 	CALL SUBOPT_0x4C
000f67 940e 1639 	CALL __MODD21U
000f69 940e 139c 	CALL SUBOPT_0x45
000f6b 89ec      	LDD  R30,Y+20
                +
000f6c 89a8     +LDD R26 , Y + 16
000f6d 89b9     +LDD R27 , Y + 16 + 1
000f6e 898a     +LDD R24 , Y + 16 + 2
000f6f 899b     +LDD R25 , Y + 16 + 3
                 	__GETD2S 16
000f70 27ff      	CLR  R31
000f71 2766      	CLR  R22
000f72 2777      	CLR  R23
000f73 940e 1608 	CALL __DIVD21U
000f75 940e 13b5 	CALL SUBOPT_0x4A
                +
000f77 89e8     +LDD R30 , Y + 16
000f78 89f9     +LDD R31 , Y + 16 + 1
000f79 896a     +LDD R22 , Y + 16 + 2
000f7a 897b     +LDD R23 , Y + 16 + 3
                 	__GETD1S 16
000f7b 940e 16a2 	CALL __CPD10
000f7d f009      	BREQ _0x20600A1
000f7e cfaf      	RJMP _0x20600A0
                 _0x20600A1:
                 _0x206009E:
000f7f ff00      	SBRS R16,0
000f80 c008      	RJMP _0x20600B4
                 _0x20600B5:
000f81 3050      	CPI  R21,0
000f82 f031      	BREQ _0x20600B7
000f83 5051      	SUBI R21,LOW(1)
000f84 e2e0      	LDI  R30,LOW(32)
000f85 93ea      	ST   -Y,R30
000f86 940e 138f 	CALL SUBOPT_0x43
000f88 cff8      	RJMP _0x20600B5
                 _0x20600B7:
                 _0x20600B4:
                 _0x20600B8:
                 _0x2060054:
                 _0x2060114:
000f89 e010      	LDI  R17,LOW(0)
                 _0x2060035:
000f8a ce0c      	RJMP _0x2060030
                 _0x2060032:
000f8b 81ae      	LDD  R26,Y+6
000f8c 81bf      	LDD  R27,Y+6+1
000f8d 940e 1649 	CALL __GETW1P
000f8f 940e 16b1 	CALL __LOADLOCR6
000f91 96ef      	ADIW R28,63
000f92 966f      	ADIW R28,31
000f93 9508      	RET
                 ; .FEND
                 _sprintf:
                 ; .FSTART _sprintf
000f94 92ff      	PUSH R15
000f95 2ef8      	MOV  R15,R24
000f96 9726      	SBIW R28,6
000f97 940e 16ac 	CALL __SAVELOCR4
000f99 940e 13d5 	CALL SUBOPT_0x4D
000f9b 9730      	SBIW R30,0
000f9c f419      	BRNE _0x20600B9
000f9d efef      	LDI  R30,LOW(65535)
000f9e efff      	LDI  R31,HIGH(65535)
000f9f c023      	RJMP _0x2120006
                 _0x20600B9:
000fa0 01de      	MOVW R26,R28
000fa1 9616      	ADIW R26,6
000fa2 940e 15b8 	CALL __ADDW2R15
000fa4 018d      	MOVW R16,R26
000fa5 940e 13d5 	CALL SUBOPT_0x4D
000fa7 83ee      	STD  Y+6,R30
000fa8 83ff      	STD  Y+6+1,R31
000fa9 e0e0      	LDI  R30,LOW(0)
000faa 87e8      	STD  Y+8,R30
000fab 87e9      	STD  Y+8+1,R30
000fac 01de      	MOVW R26,R28
000fad 961a      	ADIW R26,10
000fae 940e 15b8 	CALL __ADDW2R15
000fb0 940e 1649 	CALL __GETW1P
000fb2 93fa      	ST   -Y,R31
000fb3 93ea      	ST   -Y,R30
000fb4 931a      	ST   -Y,R17
000fb5 930a      	ST   -Y,R16
000fb6 e6ee      	LDI  R30,LOW(_put_buff_G103)
000fb7 e0fc      	LDI  R31,HIGH(_put_buff_G103)
000fb8 93fa      	ST   -Y,R31
000fb9 93ea      	ST   -Y,R30
000fba 01de      	MOVW R26,R28
000fbb 961a      	ADIW R26,10
000fbc ddbd      	RCALL __print_G103
000fbd 019f      	MOVW R18,R30
000fbe 81ae      	LDD  R26,Y+6
000fbf 81bf      	LDD  R27,Y+6+1
000fc0 e0e0      	LDI  R30,LOW(0)
000fc1 93ec      	ST   X,R30
000fc2 01f9      	MOVW R30,R18
                 _0x2120006:
000fc3 940e 16b3 	CALL __LOADLOCR4
000fc5 962a      	ADIW R28,10
000fc6 90ff      	POP  R15
000fc7 9508      	RET
                 ; .FEND
                 
                 	.CSEG
                 _ftoa:
                 ; .FSTART _ftoa
000fc8 940e 1317 	CALL SUBOPT_0x33
000fca e0e0      	LDI  R30,LOW(0)
000fcb 83ea      	STD  Y+2,R30
000fcc e3ef      	LDI  R30,LOW(63)
000fcd 83eb      	STD  Y+3,R30
000fce 931a      	ST   -Y,R17
000fcf 930a      	ST   -Y,R16
000fd0 85eb      	LDD  R30,Y+11
000fd1 85fc      	LDD  R31,Y+11+1
000fd2 3fef      	CPI  R30,LOW(0xFFFF)
000fd3 efaf      	LDI  R26,HIGH(0xFFFF)
000fd4 07fa      	CPC  R31,R26
000fd5 f439      	BRNE _0x208000D
000fd6 940e 13dc 	CALL SUBOPT_0x4E
                +
000fd8 ecaa     +LDI R26 , LOW ( 2 * _0x2080000 + ( 0 ) )
000fd9 e0b2     +LDI R27 , HIGH ( 2 * _0x2080000 + ( 0 ) )
                 	__POINTW2FN _0x2080000,0
000fda 940e 109e 	CALL _strcpyf
000fdc c0ad      	RJMP _0x2120005
                 _0x208000D:
000fdd 3fef      	CPI  R30,LOW(0x7FFF)
000fde e7af      	LDI  R26,HIGH(0x7FFF)
000fdf 07fa      	CPC  R31,R26
000fe0 f439      	BRNE _0x208000C
000fe1 940e 13dc 	CALL SUBOPT_0x4E
                +
000fe3 ecab     +LDI R26 , LOW ( 2 * _0x2080000 + ( 1 ) )
000fe4 e0b2     +LDI R27 , HIGH ( 2 * _0x2080000 + ( 1 ) )
                 	__POINTW2FN _0x2080000,1
000fe5 940e 109e 	CALL _strcpyf
000fe7 c0a2      	RJMP _0x2120005
                 _0x208000C:
000fe8 85ac      	LDD  R26,Y+12
000fe9 23aa      	TST  R26
000fea f462      	BRPL _0x208000F
                +
000feb 85e9     +LDD R30 , Y + 9
000fec 85fa     +LDD R31 , Y + 9 + 1
000fed 856b     +LDD R22 , Y + 9 + 2
000fee 857c     +LDD R23 , Y + 9 + 3
                 	__GETD1S 9
000fef 940e 140f 	CALL __ANEGF1
000ff1 940e 13e1 	CALL SUBOPT_0x4F
000ff3 940e 13e6 	CALL SUBOPT_0x50
000ff5 e2ed      	LDI  R30,LOW(45)
000ff6 93ec      	ST   X,R30
                 _0x208000F:
000ff7 85a8      	LDD  R26,Y+8
000ff8 30a7      	CPI  R26,LOW(0x7)
000ff9 f010      	BRLO _0x2080010
000ffa e0e6      	LDI  R30,LOW(6)
000ffb 87e8      	STD  Y+8,R30
                 _0x2080010:
000ffc 8518      	LDD  R17,Y+8
                 _0x2080011:
000ffd 2fe1      	MOV  R30,R17
000ffe 5011      	SUBI R17,1
000fff 30e0      	CPI  R30,0
001000 f039      	BREQ _0x2080013
001001 940e 13ed 	CALL SUBOPT_0x51
001003 940e 135c 	CALL SUBOPT_0x3B
001005 940e 13f2 	CALL SUBOPT_0x52
001007 cff5      	RJMP _0x2080011
                 _0x2080013:
001008 940e 13f7 	CALL SUBOPT_0x53
00100a 940e 14b5 	CALL __ADDF12
00100c 940e 13e1 	CALL SUBOPT_0x4F
00100e e010      	LDI  R17,LOW(0)
                +
00100f e0e0     +LDI R30 , LOW ( 0x3F800000 )
001010 e0f0     +LDI R31 , HIGH ( 0x3F800000 )
001011 e860     +LDI R22 , BYTE3 ( 0x3F800000 )
001012 e37f     +LDI R23 , BYTE4 ( 0x3F800000 )
                 	__GETD1N 0x3F800000
001013 940e 13f2 	CALL SUBOPT_0x52
                 _0x2080014:
001015 940e 13f7 	CALL SUBOPT_0x53
001017 940e 1598 	CALL __CMPF12
001019 f088      	BRLO _0x2080016
00101a 940e 13ed 	CALL SUBOPT_0x51
00101c 940e 1349 	CALL SUBOPT_0x38
00101e 940e 13f2 	CALL SUBOPT_0x52
001020 5f1f      	SUBI R17,-LOW(1)
001021 3217      	CPI  R17,39
001022 f038      	BRLO _0x2080017
001023 940e 13dc 	CALL SUBOPT_0x4E
                +
001025 ecaf     +LDI R26 , LOW ( 2 * _0x2080000 + ( 5 ) )
001026 e0b2     +LDI R27 , HIGH ( 2 * _0x2080000 + ( 5 ) )
                 	__POINTW2FN _0x2080000,5
001027 940e 109e 	CALL _strcpyf
001029 c060      	RJMP _0x2120005
                 _0x2080017:
00102a cfea      	RJMP _0x2080014
                 _0x2080016:
00102b 3010      	CPI  R17,0
00102c f429      	BRNE _0x2080018
00102d 940e 13e6 	CALL SUBOPT_0x50
00102f e3e0      	LDI  R30,LOW(48)
001030 93ec      	ST   X,R30
001031 c02b      	RJMP _0x2080019
                 _0x2080018:
                 _0x208001A:
001032 2fe1      	MOV  R30,R17
001033 5011      	SUBI R17,1
001034 30e0      	CPI  R30,0
001035 f139      	BREQ _0x208001C
001036 940e 13ed 	CALL SUBOPT_0x51
001038 940e 135c 	CALL SUBOPT_0x3B
00103a 940e 1355 	CALL SUBOPT_0x3A
00103c 01df      	MOVW R26,R30
00103d 01cb      	MOVW R24,R22
00103e 940e 1166 	CALL _floor
001040 940e 13f2 	CALL SUBOPT_0x52
001042 940e 13f7 	CALL SUBOPT_0x53
001044 940e 1553 	CALL __DIVF21
001046 940e 1442 	CALL __CFD1U
001048 2f0e      	MOV  R16,R30
001049 940e 13e6 	CALL SUBOPT_0x50
00104b 940e 136a 	CALL SUBOPT_0x3D
00104d e0f0      	LDI  R31,0
00104e 940e 13ed 	CALL SUBOPT_0x51
001050 940e 15e8 	CALL __CWD1
001052 940e 147b 	CALL __CDF1
001054 940e 1505 	CALL __MULF12
001056 940e 1400 	CALL SUBOPT_0x54
001058 940e 136f 	CALL SUBOPT_0x3E
00105a 940e 13e1 	CALL SUBOPT_0x4F
00105c cfd5      	RJMP _0x208001A
                 _0x208001C:
                 _0x2080019:
00105d 85e8      	LDD  R30,Y+8
00105e 30e0      	CPI  R30,0
00105f f131      	BREQ _0x2120004
001060 940e 13e6 	CALL SUBOPT_0x50
001062 e2ee      	LDI  R30,LOW(46)
001063 93ec      	ST   X,R30
                 _0x208001E:
001064 85e8      	LDD  R30,Y+8
001065 50e1      	SUBI R30,LOW(1)
001066 87e8      	STD  Y+8,R30
001067 5fef      	SUBI R30,-LOW(1)
001068 f0e9      	BREQ _0x2080020
001069 940e 1400 	CALL SUBOPT_0x54
00106b 940e 1349 	CALL SUBOPT_0x38
00106d 940e 13e1 	CALL SUBOPT_0x4F
                +
00106f 85e9     +LDD R30 , Y + 9
001070 85fa     +LDD R31 , Y + 9 + 1
001071 856b     +LDD R22 , Y + 9 + 2
001072 857c     +LDD R23 , Y + 9 + 3
                 	__GETD1S 9
001073 940e 1442 	CALL __CFD1U
001075 2f0e      	MOV  R16,R30
001076 940e 13e6 	CALL SUBOPT_0x50
001078 940e 136a 	CALL SUBOPT_0x3D
00107a e0f0      	LDI  R31,0
00107b 940e 1400 	CALL SUBOPT_0x54
00107d 940e 15e8 	CALL __CWD1
00107f 940e 147b 	CALL __CDF1
001081 940e 136f 	CALL SUBOPT_0x3E
001083 940e 13e1 	CALL SUBOPT_0x4F
001085 cfde      	RJMP _0x208001E
                 _0x2080020:
                 _0x2120004:
001086 81ae      	LDD  R26,Y+6
001087 81bf      	LDD  R27,Y+6+1
001088 e0e0      	LDI  R30,LOW(0)
001089 93ec      	ST   X,R30
                 _0x2120005:
00108a 8119      	LDD  R17,Y+1
00108b 8108      	LDD  R16,Y+0
00108c 962d      	ADIW R28,13
00108d 9508      	RET
                 ; .FEND
                 
                 	.DSEG
                 
                 	.CSEG
                 
                 	.CSEG
                 _memset:
                 ; .FSTART _memset
00108e 93ba      	ST   -Y,R27
00108f 93aa      	ST   -Y,R26
001090 81b9          ldd  r27,y+1
001091 81a8          ld   r26,y
001092 9610          adiw r26,0
001093 f031          breq memset1
001094 81fc          ldd  r31,y+4
001095 81eb          ldd  r30,y+3
001096 816a          ldd  r22,y+2
                 memset0:
001097 9361          st   z+,r22
001098 9711          sbiw r26,1
001099 f7e9          brne memset0
                 memset1:
00109a 81eb          ldd  r30,y+3
00109b 81fc          ldd  r31,y+4
                 _0x2120003:
00109c 9625      	ADIW R28,5
00109d 9508      	RET
                 ; .FEND
                 _strcpyf:
                 ; .FSTART _strcpyf
00109e 93ba      	ST   -Y,R27
00109f 93aa      	ST   -Y,R26
0010a0 91e9          ld   r30,y+
0010a1 91f9          ld   r31,y+
0010a2 91a9          ld   r26,y+
0010a3 91b9          ld   r27,y+
0010a4 01cd          movw r24,r26
                 strcpyf0:
0010a5 9005      	lpm  r0,z+
0010a6 920d          st   x+,r0
0010a7 2000          tst  r0
0010a8 f7e1          brne strcpyf0
0010a9 01fc          movw r30,r24
0010aa 9508          ret
                 ; .FEND
                 _strlen:
                 ; .FSTART _strlen
0010ab 93ba      	ST   -Y,R27
0010ac 93aa      	ST   -Y,R26
0010ad 91a9          ld   r26,y+
0010ae 91b9          ld   r27,y+
0010af 27ee          clr  r30
0010b0 27ff          clr  r31
                 strlen0:
0010b1 916d          ld   r22,x+
0010b2 2366          tst  r22
0010b3 f011          breq strlen1
0010b4 9631          adiw r30,1
0010b5 cffb          rjmp strlen0
                 strlen1:
0010b6 9508          ret
                 ; .FEND
                 _strlenf:
                 ; .FSTART _strlenf
0010b7 93ba      	ST   -Y,R27
0010b8 93aa      	ST   -Y,R26
0010b9 27aa          clr  r26
0010ba 27bb          clr  r27
0010bb 91e9          ld   r30,y+
0010bc 91f9          ld   r31,y+
                 strlenf0:
0010bd 9005      	lpm  r0,z+
0010be 2000          tst  r0
0010bf f011          breq strlenf1
0010c0 9611          adiw r26,1
0010c1 cffb          rjmp strlenf0
                 strlenf1:
0010c2 01fd          movw r30,r26
0010c3 9508          ret
                 ; .FEND
                 
                 	.CSEG
                 _glcd_getmask:
                 ; .FSTART _glcd_getmask
0010c4 93aa      	ST   -Y,R26
0010c5 81e8      	LD   R30,Y
0010c6 e0f0      	LDI  R31,0
0010c7 5ce8      	SUBI R30,LOW(-__glcd_mask*2)
0010c8 4ffd      	SBCI R31,HIGH(-__glcd_mask*2)
0010c9 91a4      	LPM  R26,Z
0010ca 81e9      	LDD  R30,Y+1
0010cb 940e 15c8 	CALL __LSLB12
0010cd 9622      	ADIW R28,2
0010ce 9508      	RET
                 ; .FEND
                 _glcd_mappixcolor1bit:
                 ; .FSTART _glcd_mappixcolor1bit
0010cf 93aa      	ST   -Y,R26
0010d0 931a      	ST   -Y,R17
0010d1 81e9      	LDD  R30,Y+1
0010d2 30e7      	CPI  R30,LOW(0x7)
0010d3 f011      	BREQ _0x20C0007
0010d4 30ea      	CPI  R30,LOW(0xA)
0010d5 f419      	BRNE _0x20C0008
                 _0x20C0007:
0010d6 9110 01f4 	LDS  R17,_glcd_state
0010d8 c009      	RJMP _0x20C0009
                 _0x20C0008:
0010d9 30e9      	CPI  R30,LOW(0x9)
0010da f419      	BRNE _0x20C000B
                +
0010db 9110 01f5+LDS R17 , _glcd_state + ( 1 )
                 	__GETBRMN 17,_glcd_state,1
0010dd c004      	RJMP _0x20C0009
                 _0x20C000B:
0010de 30e8      	CPI  R30,LOW(0x8)
0010df f4a1      	BRNE _0x20C0005
                +
0010e0 9110 0204+LDS R17 , _glcd_state + ( 16 )
                 	__GETBRMN 17,_glcd_state,16
                 _0x20C0009:
                +
0010e2 91e0 01f5+LDS R30 , _glcd_state + ( 1 )
                 	__GETB1MN _glcd_state,1
0010e4 30e0      	CPI  R30,0
0010e5 f049      	BREQ _0x20C000E
0010e6 3010      	CPI  R17,0
0010e7 f019      	BREQ _0x20C000F
0010e8 efef      	LDI  R30,LOW(255)
0010e9 8118      	LDD  R17,Y+0
0010ea c029      	RJMP _0x2120002
                 _0x20C000F:
0010eb 81ea      	LDD  R30,Y+2
0010ec 95e0      	COM  R30
0010ed 8118      	LDD  R17,Y+0
0010ee c025      	RJMP _0x2120002
                 _0x20C000E:
0010ef 3010      	CPI  R17,0
0010f0 f419      	BRNE _0x20C0011
0010f1 e0e0      	LDI  R30,LOW(0)
0010f2 8118      	LDD  R17,Y+0
0010f3 c020      	RJMP _0x2120002
                 _0x20C0011:
                 _0x20C0005:
0010f4 81ea      	LDD  R30,Y+2
0010f5 8118      	LDD  R17,Y+0
0010f6 c01d      	RJMP _0x2120002
                 ; .FEND
                 _glcd_readmem:
                 ; .FSTART _glcd_readmem
0010f7 93ba      	ST   -Y,R27
0010f8 93aa      	ST   -Y,R26
0010f9 81ea      	LDD  R30,Y+2
0010fa 30e1      	CPI  R30,LOW(0x1)
0010fb f421      	BRNE _0x20C0015
0010fc 81e8      	LD   R30,Y
0010fd 81f9      	LDD  R31,Y+1
0010fe 91e4      	LPM  R30,Z
0010ff c014      	RJMP _0x2120002
                 _0x20C0015:
001100 30e2      	CPI  R30,LOW(0x2)
001101 f429      	BRNE _0x20C0016
001102 81a8      	LD   R26,Y
001103 81b9      	LDD  R27,Y+1
001104 940e 167d 	CALL __EEPROMRDB
001106 c00d      	RJMP _0x2120002
                 _0x20C0016:
001107 30e3      	CPI  R30,LOW(0x3)
001108 f441      	BRNE _0x20C0018
001109 81a8      	LD   R26,Y
00110a 81b9      	LDD  R27,Y+1
                +
00110b 91e0 020d+LDS R30 , _glcd_state + ( 25 )
00110d 91f0 020e+LDS R31 , _glcd_state + ( 25 ) + 1
00110f 9509     +ICALL
                 	__CALL1MN _glcd_state,25
001110 c003      	RJMP _0x2120002
                 _0x20C0018:
001111 81a8      	LD   R26,Y
001112 81b9      	LDD  R27,Y+1
001113 91ec      	LD   R30,X
                 _0x2120002:
001114 9623      	ADIW R28,3
001115 9508      	RET
                 ; .FEND
                 _glcd_writemem:
                 ; .FSTART _glcd_writemem
001116 93aa      	ST   -Y,R26
001117 81eb      	LDD  R30,Y+3
001118 30e0      	CPI  R30,0
001119 f429      	BRNE _0x20C001C
00111a 81e8      	LD   R30,Y
00111b 81a9      	LDD  R26,Y+1
00111c 81ba      	LDD  R27,Y+1+1
00111d 93ec      	ST   X,R30
00111e c014      	RJMP _0x20C001B
                 _0x20C001C:
00111f 30e2      	CPI  R30,LOW(0x2)
001120 f431      	BRNE _0x20C001D
001121 81e8      	LD   R30,Y
001122 81a9      	LDD  R26,Y+1
001123 81ba      	LDD  R27,Y+1+1
001124 940e 1691 	CALL __EEPROMWRB
001126 c00c      	RJMP _0x20C001B
                 _0x20C001D:
001127 30e3      	CPI  R30,LOW(0x3)
001128 f451      	BRNE _0x20C001B
001129 81e9      	LDD  R30,Y+1
00112a 81fa      	LDD  R31,Y+1+1
00112b 93fa      	ST   -Y,R31
00112c 93ea      	ST   -Y,R30
00112d 81aa      	LDD  R26,Y+2
                +
00112e 91e0 020f+LDS R30 , _glcd_state + ( 27 )
001130 91f0 0210+LDS R31 , _glcd_state + ( 27 ) + 1
001132 9509     +ICALL
                 	__CALL1MN _glcd_state,27
                 _0x20C001B:
001133 940c 117b 	JMP  _0x2120001
                 ; .FEND
                 
                 	.CSEG
                 _ftrunc:
                 ; .FSTART _ftrunc
001135 940e 1667 	CALL __PUTPARD2
001137 817b         ldd  r23,y+3
001138 816a         ldd  r22,y+2
001139 81f9         ldd  r31,y+1
00113a 81e8         ld   r30,y
00113b fb77         bst  r23,7
00113c 0f77         lsl  r23
00113d fd67         sbrc r22,7
00113e 6071         sbr  r23,1
00113f 2f97         mov  r25,r23
001140 579e         subi r25,0x7e
001141 f081         breq __ftrunc0
001142 f078         brcs __ftrunc0
001143 3198         cpi  r25,24
001144 f490         brsh __ftrunc1
001145 27aa         clr  r26
001146 27bb         clr  r27
001147 2788         clr  r24
                 __ftrunc2:
001148 9408         sec
001149 9587         ror  r24
00114a 95b7         ror  r27
00114b 95a7         ror  r26
00114c 959a         dec  r25
00114d f7d1         brne __ftrunc2
00114e 23ea         and  r30,r26
00114f 23fb         and  r31,r27
001150 2368         and  r22,r24
001151 c005         rjmp __ftrunc1
                 __ftrunc0:
001152 94e8         clt
001153 2777         clr  r23
001154 27ee         clr  r30
001155 27ff         clr  r31
001156 2766         clr  r22
                 __ftrunc1:
001157 776f         cbr  r22,0x80
001158 9576         lsr  r23
001159 f408         brcc __ftrunc3
00115a 6860         sbr  r22,0x80
                 __ftrunc3:
00115b f977         bld  r23,7
00115c 91a9         ld   r26,y+
00115d 91b9         ld   r27,y+
00115e 9189         ld   r24,y+
00115f 9199         ld   r25,y+
001160 17ea         cp   r30,r26
001161 07fb         cpc  r31,r27
001162 0768         cpc  r22,r24
001163 0779         cpc  r23,r25
001164 fb97         bst  r25,7
001165 9508         ret
                 ; .FEND
                 _floor:
                 ; .FSTART _floor
001166 940e 1667 	CALL __PUTPARD2
001168 940e 1658 	CALL __GETD2S0
00116a 940e 1135 	CALL _ftrunc
00116c 940e 165d 	CALL __PUTD1S0
00116e f419          brne __floor1
                 __floor0:
00116f 940e 1653 	CALL __GETD1S0
001171 c009      	RJMP _0x2120001
                 __floor1:
001172 f7e6          brtc __floor0
001173 940e 1653 	CALL __GETD1S0
                +
001175 e0a0     +LDI R26 , LOW ( 0x3F800000 )
001176 e0b0     +LDI R27 , HIGH ( 0x3F800000 )
001177 e880     +LDI R24 , BYTE3 ( 0x3F800000 )
001178 e39f     +LDI R25 , BYTE4 ( 0x3F800000 )
                 	__GETD2N 0x3F800000
001179 940e 14ae 	CALL __SUBF12
                 _0x2120001:
00117b 9624      	ADIW R28,4
00117c 9508      	RET
                 ; .FEND
                 
                 	.CSEG
                 
                 	.DSEG
                 _glcd_state:
0001f4           	.BYTE 0x1D
                 
                 	.ESEG
                 _counter:
000000 00
000001 00        	.DB  0x0,0x0
                 _temprature:
000002           	.BYTE 0x80
                 
                 	.DSEG
                 _tx_buffer:
000211           	.BYTE 0x8
                 _ks0108_coord_G100:
000219           	.BYTE 0x3
                 __seed_G104:
00021c           	.BYTE 0x4
                 
                 	.CSEG
                 ;OPTIMIZER ADDED SUBROUTINE, CALLED 3 TIMES, CODE SIZE REDUCTION:27 WORDS
                 SUBOPT_0x0:
00117d 940e 04d0 	CALL _glcd_clear
00117f e0e2      	LDI  R30,LOW(2)
001180 93ea      	ST   -Y,R30
001181 93ea      	ST   -Y,R30
001182 e7ec      	LDI  R30,LOW(124)
001183 93ea      	ST   -Y,R30
001184 e3ec      	LDI  R30,LOW(60)
001185 93ea      	ST   -Y,R30
001186 e0a5      	LDI  R26,LOW(5)
001187 940e 09bd 	CALL _glcd_rectround
001189 e0ef      	LDI  R30,LOW(15)
00118a 93ea      	ST   -Y,R30
00118b e0e5      	LDI  R30,LOW(5)
00118c 93ea      	ST   -Y,R30
00118d 9508      	RET
                 
                 ;OPTIMIZER ADDED SUBROUTINE, CALLED 3 TIMES, CODE SIZE REDUCTION:19 WORDS
                 SUBOPT_0x1:
00118e 940e 085f 	CALL _glcd_outtextxy
001190 e2e0      	LDI  R30,LOW(32)
001191 93ea      	ST   -Y,R30
001192 e2eb      	LDI  R30,LOW(43)
001193 93ea      	ST   -Y,R30
001194 e0af      	LDI  R26,LOW(15)
001195 940e 0c10 	CALL _glcd_circle
001197 e1e5      	LDI  R30,LOW(21)
001198 93ea      	ST   -Y,R30
001199 e2e8      	LDI  R30,LOW(40)
00119a 93ea      	ST   -Y,R30
00119b 9508      	RET
                 
                 ;OPTIMIZER ADDED SUBROUTINE, CALLED 3 TIMES, CODE SIZE REDUCTION:19 WORDS
                 SUBOPT_0x2:
00119c 940e 085f 	CALL _glcd_outtextxy
00119e e5ef      	LDI  R30,LOW(95)
00119f 93ea      	ST   -Y,R30
0011a0 e2eb      	LDI  R30,LOW(43)
0011a1 93ea      	ST   -Y,R30
0011a2 e0af      	LDI  R26,LOW(15)
0011a3 940e 0c10 	CALL _glcd_circle
0011a5 e5e3      	LDI  R30,LOW(83)
0011a6 93ea      	ST   -Y,R30
0011a7 e2e8      	LDI  R30,LOW(40)
0011a8 93ea      	ST   -Y,R30
0011a9 9508      	RET
                 
                 ;OPTIMIZER ADDED SUBROUTINE, CALLED 8 TIMES, CODE SIZE REDUCTION:11 WORDS
                 SUBOPT_0x3:
0011aa e0a0      	LDI  R26,LOW(_counter)
0011ab e0b0      	LDI  R27,HIGH(_counter)
0011ac 940e 1679 	CALL __EEPROMRDW
0011ae 9508      	RET
                 
                 ;OPTIMIZER ADDED SUBROUTINE, CALLED 3 TIMES, CODE SIZE REDUCTION:21 WORDS
                 SUBOPT_0x4:
                +
0011af e0a0     +LDI R26 , LOW ( 0x40800000 )
0011b0 e0b0     +LDI R27 , HIGH ( 0x40800000 )
0011b1 e880     +LDI R24 , BYTE3 ( 0x40800000 )
0011b2 e490     +LDI R25 , BYTE4 ( 0x40800000 )
                 	__GETD2N 0x40800000
0011b3 940e 14ae 	CALL __SUBF12
0011b5 01df      	MOVW R26,R30
0011b6 01cb      	MOVW R24,R22
                +
0011b7 e0e0     +LDI R30 , LOW ( 0x40800000 )
0011b8 e0f0     +LDI R31 , HIGH ( 0x40800000 )
0011b9 e860     +LDI R22 , BYTE3 ( 0x40800000 )
0011ba e470     +LDI R23 , BYTE4 ( 0x40800000 )
                 	__GETD1N 0x40800000
0011bb 940e 1553 	CALL __DIVF21
0011bd 9508      	RET
                 
                 ;OPTIMIZER ADDED SUBROUTINE, CALLED 2 TIMES, CODE SIZE REDUCTION:3 WORDS
                 SUBOPT_0x5:
0011be 93fa      	ST   -Y,R31
0011bf 93ea      	ST   -Y,R30
                +
0011c0 a1ec     +LDD R30 , Y + 36
0011c1 a1fd     +LDD R31 , Y + 36 + 1
0011c2 a16e     +LDD R22 , Y + 36 + 2
0011c3 a17f     +LDD R23 , Y + 36 + 3
                 	__GETD1S 36
0011c4 cfea      	RJMP SUBOPT_0x4
                 
                 ;OPTIMIZER ADDED SUBROUTINE, CALLED 5 TIMES, CODE SIZE REDUCTION:13 WORDS
                 SUBOPT_0x6:
0011c5 940e 1662 	CALL __PUTPARD1
0011c7 e084      	LDI  R24,4
0011c8 940e 0f94 	CALL _sprintf
0011ca 9628      	ADIW R28,8
0011cb 9508      	RET
                 
                 ;OPTIMIZER ADDED SUBROUTINE, CALLED 2 TIMES, CODE SIZE REDUCTION:1 WORDS
                 SUBOPT_0x7:
0011cc 931a      	ST   -Y,R17
0011cd 930a      	ST   -Y,R16
                +
0011ce e000     +LDI R16 , LOW ( 0 )
0011cf e010     +LDI R17 , HIGH ( 0 )
                 	__GETWRN 16,17,0
0011d0 940c 04d0 	JMP  _glcd_clear
                 
                 ;OPTIMIZER ADDED SUBROUTINE, CALLED 6 TIMES, CODE SIZE REDUCTION:17 WORDS
                 SUBOPT_0x8:
0011d2 e0a2      	LDI  R26,LOW(_temprature)
0011d3 e0b0      	LDI  R27,HIGH(_temprature)
0011d4 0fa0      	ADD  R26,R16
0011d5 1fb1      	ADC  R27,R17
0011d6 940e 167d 	CALL __EEPROMRDB
0011d8 9508      	RET
                 
                 ;OPTIMIZER ADDED SUBROUTINE, CALLED 2 TIMES, CODE SIZE REDUCTION:3 WORDS
                 SUBOPT_0x9:
                +
0011d9 89ae     +LDD R26 , Y + 22
0011da 89bf     +LDD R27 , Y + 22 + 1
0011db 8d88     +LDD R24 , Y + 22 + 2
0011dc 8d99     +LDD R25 , Y + 22 + 3
                 	__GETD2S 22
0011dd 940e 15e8 	CALL __CWD1
0011df 940e 147b 	CALL __CDF1
0011e1 9508      	RET
                 
                 ;OPTIMIZER ADDED SUBROUTINE, CALLED 6 TIMES, CODE SIZE REDUCTION:7 WORDS
                 SUBOPT_0xA:
                +
0011e2 8bee     +STD Y + 22 , R30
0011e3 8bff     +STD Y + 22 + 1 , R31
0011e4 8f68     +STD Y + 22 + 2 , R22
0011e5 8f79     +STD Y + 22 + 3 , R23
                 	__PUTD1S 22
0011e6 9508      	RET
                 
                 ;OPTIMIZER ADDED SUBROUTINE, CALLED 3 TIMES, CODE SIZE REDUCTION:21 WORDS
                 SUBOPT_0xB:
0011e7 01fe      	MOVW R30,R28
0011e8 9632      	ADIW R30,2
0011e9 93fa      	ST   -Y,R31
0011ea 93ea      	ST   -Y,R30
                +
0011eb ebeb     +LDI R30 , LOW ( 2 * _0x0 + ( 117 ) )
0011ec e0f2     +LDI R31 , HIGH ( 2 * _0x0 + ( 117 ) )
                 	__POINTW1FN _0x0,117
0011ed 93fa      	ST   -Y,R31
0011ee 93ea      	ST   -Y,R30
                +
0011ef 8dea     +LDD R30 , Y + 26
0011f0 8dfb     +LDD R31 , Y + 26 + 1
0011f1 8d6c     +LDD R22 , Y + 26 + 2
0011f2 8d7d     +LDD R23 , Y + 26 + 3
                 	__GETD1S 26
0011f3 cfd1      	RJMP SUBOPT_0x6
                 
                 ;OPTIMIZER ADDED SUBROUTINE, CALLED 2 TIMES, CODE SIZE REDUCTION:13 WORDS
                 SUBOPT_0xC:
0011f4 93ea      	ST   -Y,R30
0011f5 01de      	MOVW R26,R28
0011f6 9614      	ADIW R26,4
0011f7 940e 085f 	CALL _glcd_outtextxy
0011f9 e0a2      	LDI  R26,LOW(_temprature)
0011fa e0b0      	LDI  R27,HIGH(_temprature)
0011fb 940e 167d 	CALL __EEPROMRDB
0011fd 27ff      	CLR  R31
0011fe 2766      	CLR  R22
0011ff 2777      	CLR  R23
001200 940e 147b 	CALL __CDF1
001202 dfdf      	RCALL SUBOPT_0xA
                +
001203 e001     +LDI R16 , LOW ( 1 )
001204 e010     +LDI R17 , HIGH ( 1 )
                 	__GETWRN 16,17,1
001205 9508      	RET
                 
                 ;OPTIMIZER ADDED SUBROUTINE, CALLED 2 TIMES, CODE SIZE REDUCTION:6 WORDS
                 SUBOPT_0xD:
                +
001206 89ae     +LDD R26 , Y + 22
001207 89bf     +LDD R27 , Y + 22 + 1
001208 8d88     +LDD R24 , Y + 22 + 2
001209 8d99     +LDD R25 , Y + 22 + 3
                 	__GETD2S 22
00120a 27ff      	CLR  R31
00120b 2766      	CLR  R22
00120c 2777      	CLR  R23
00120d 940e 147b 	CALL __CDF1
00120f 940e 1598 	CALL __CMPF12
001211 9508      	RET
                 
                 ;OPTIMIZER ADDED SUBROUTINE, CALLED 2 TIMES, CODE SIZE REDUCTION:2 WORDS
                 SUBOPT_0xE:
001212 27ff      	CLR  R31
001213 2766      	CLR  R22
001214 2777      	CLR  R23
001215 940e 147b 	CALL __CDF1
001217 cfca      	RJMP SUBOPT_0xA
                 
                 ;OPTIMIZER ADDED SUBROUTINE, CALLED 2 TIMES, CODE SIZE REDUCTION:4 WORDS
                 SUBOPT_0xF:
001218 98a9      	CBI  0x15,1
001219 efef      	LDI  R30,LOW(255)
00121a bbe7      	OUT  0x17,R30
00121b 81e8      	LD   R30,Y
00121c bbe8      	OUT  0x18,R30
00121d 940e 03ed 	CALL _ks0108_enable_G100
00121f 940c 03f1 	JMP  _ks0108_disable_G100
                 
                 ;OPTIMIZER ADDED SUBROUTINE, CALLED 2 TIMES, CODE SIZE REDUCTION:1 WORDS
                 SUBOPT_0x10:
001221 95e6      	LSR  R30
001222 95e6      	LSR  R30
001223 95e6      	LSR  R30
001224 2fae      	MOV  R26,R30
001225 940c 042c 	JMP  _ks0108_gotoxp_G100
                 
                 ;OPTIMIZER ADDED SUBROUTINE, CALLED 3 TIMES, CODE SIZE REDUCTION:1 WORDS
                 SUBOPT_0x11:
001227 940e 0450 	CALL _ks0108_wrdata_G100
001229 940c 043b 	JMP  _ks0108_nextx_G100
                 
                 ;OPTIMIZER ADDED SUBROUTINE, CALLED 3 TIMES, CODE SIZE REDUCTION:1 WORDS
                 SUBOPT_0x12:
00122b 0fea      	ADD  R30,R26
00122c 1ffb      	ADC  R31,R27
00122d 83ee      	STD  Y+6,R30
00122e 83ff      	STD  Y+6+1,R31
00122f 9508      	RET
                 
                 ;OPTIMIZER ADDED SUBROUTINE, CALLED 2 TIMES, CODE SIZE REDUCTION:8 WORDS
                 SUBOPT_0x13:
001230 85ec      	LDD  R30,Y+12
001231 93ea      	ST   -Y,R30
001232 81ef      	LDD  R30,Y+7
001233 85f8      	LDD  R31,Y+7+1
001234 9631      	ADIW R30,1
001235 83ef      	STD  Y+7,R30
001236 87f8      	STD  Y+7+1,R31
001237 9731      	SBIW R30,1
001238 93fa      	ST   -Y,R31
001239 93ea      	ST   -Y,R30
00123a e0a0      	LDI  R26,LOW(0)
00123b 940c 1116 	JMP  _glcd_writemem
                 
                 ;OPTIMIZER ADDED SUBROUTINE, CALLED 4 TIMES, CODE SIZE REDUCTION:15 WORDS
                 SUBOPT_0x14:
00123d 85ec      	LDD  R30,Y+12
00123e 93ea      	ST   -Y,R30
00123f 81ef      	LDD  R30,Y+7
001240 85f8      	LDD  R31,Y+7+1
001241 9631      	ADIW R30,1
001242 83ef      	STD  Y+7,R30
001243 87f8      	STD  Y+7+1,R31
001244 9731      	SBIW R30,1
001245 9508      	RET
                 
                 ;OPTIMIZER ADDED SUBROUTINE, CALLED 3 TIMES, CODE SIZE REDUCTION:5 WORDS
                 SUBOPT_0x15:
001246 2766      	CLR  R22
001247 2777      	CLR  R23
001248 01df      	MOVW R26,R30
001249 01cb      	MOVW R24,R22
00124a 940c 10f7 	JMP  _glcd_readmem
                 
                 ;OPTIMIZER ADDED SUBROUTINE, CALLED 3 TIMES, CODE SIZE REDUCTION:1 WORDS
                 SUBOPT_0x16:
00124c 935a      	ST   -Y,R21
00124d 85aa      	LDD  R26,Y+10
00124e 940c 10cf 	JMP  _glcd_mappixcolor1bit
                 
                 ;OPTIMIZER ADDED SUBROUTINE, CALLED 3 TIMES, CODE SIZE REDUCTION:3 WORDS
                 SUBOPT_0x17:
001250 930a      	ST   -Y,R16
001251 9503      	INC  R16
001252 89e8      	LDD  R30,Y+16
001253 93ea      	ST   -Y,R30
001254 935a      	ST   -Y,R21
001255 9508      	RET
                 
                 ;OPTIMIZER ADDED SUBROUTINE, CALLED 2 TIMES, CODE SIZE REDUCTION:1 WORDS
                 SUBOPT_0x18:
001256 930a      	ST   -Y,R16
001257 9503      	INC  R16
001258 89a8      	LDD  R26,Y+16
001259 940e 0462 	CALL _ks0108_rdbyte_G100
00125b 23e4      	AND  R30,R20
00125c 9508      	RET
                 
                 ;OPTIMIZER ADDED SUBROUTINE, CALLED 2 TIMES, CODE SIZE REDUCTION:5 WORDS
                 SUBOPT_0x19:
00125d 2f5e      	MOV  R21,R30
00125e 85ec      	LDD  R30,Y+12
00125f 93ea      	ST   -Y,R30
001260 81af      	LDD  R26,Y+7
001261 85b8      	LDD  R27,Y+7+1
001262 2788      	CLR  R24
001263 2799      	CLR  R25
001264 940e 10f7 	CALL _glcd_readmem
001266 2e1e      	MOV  R1,R30
001267 9508      	RET
                 
                 ;OPTIMIZER ADDED SUBROUTINE, CALLED 2 TIMES, CODE SIZE REDUCTION:9 WORDS
                 SUBOPT_0x1A:
001268 930a      	ST   -Y,R16
001269 9503      	INC  R16
00126a 89e8      	LDD  R30,Y+16
00126b 93ea      	ST   -Y,R30
00126c 85ee      	LDD  R30,Y+14
00126d 93ea      	ST   -Y,R30
00126e 85e9      	LDD  R30,Y+9
00126f 85fa      	LDD  R31,Y+9+1
001270 9631      	ADIW R30,1
001271 87e9      	STD  Y+9,R30
001272 87fa      	STD  Y+9+1,R31
001273 9731      	SBIW R30,1
001274 cfd1      	RJMP SUBOPT_0x15
                 
                 ;OPTIMIZER ADDED SUBROUTINE, CALLED 2 TIMES, CODE SIZE REDUCTION:1 WORDS
                 SUBOPT_0x1B:
001275 93ba      	ST   -Y,R27
001276 93aa      	ST   -Y,R26
001277 81a8      	LD   R26,Y
001278 81b9      	LDD  R27,Y+1
001279 940e 16a6 	CALL __CPW02
00127b 9508      	RET
                 
                 ;OPTIMIZER ADDED SUBROUTINE, CALLED 2 TIMES, CODE SIZE REDUCTION:1 WORDS
                 SUBOPT_0x1C:
00127c 940e 16aa 	CALL __SAVELOCR6
                +
00127e 91e0 01f8+LDS R30 , _glcd_state + ( 4 )
001280 91f0 01f9+LDS R31 , _glcd_state + ( 4 ) + 1
                 	__GETW1MN _glcd_state,4
001282 9508      	RET
                 
                 ;OPTIMIZER ADDED SUBROUTINE, CALLED 3 TIMES, CODE SIZE REDUCTION:1 WORDS
                 SUBOPT_0x1D:
001283 01f8      	MOVW R30,R16
                +
001284 5f0f     +SUBI R16 , LOW ( - 1 )
001285 4f1f     +SBCI R17 , HIGH ( - 1 )
                 	__ADDWRN 16,17,1
001286 9004      	LPM  R0,Z
001287 9508      	RET
                 
                 ;OPTIMIZER ADDED SUBROUTINE, CALLED 4 TIMES, CODE SIZE REDUCTION:9 WORDS
                 SUBOPT_0x1E:
                +
001288 91e0 01f8+LDS R30 , _glcd_state + ( 4 )
00128a 91f0 01f9+LDS R31 , _glcd_state + ( 4 ) + 1
                 	__GETW1MN _glcd_state,4
00128c 9631      	ADIW R30,1
00128d 91e4      	LPM  R30,Z
00128e 9508      	RET
                 
                 ;OPTIMIZER ADDED SUBROUTINE, CALLED 3 TIMES, CODE SIZE REDUCTION:1 WORDS
                 SUBOPT_0x1F:
00128f e0f0      	LDI  R31,0
001290 0fea      	ADD  R30,R26
001291 1ffb      	ADC  R31,R27
001292 018f      	MOVW R16,R30
001293 9508      	RET
                 
                 ;OPTIMIZER ADDED SUBROUTINE, CALLED 2 TIMES, CODE SIZE REDUCTION:5 WORDS
                 SUBOPT_0x20:
001294 93ea      	ST   -Y,R30
001295 e0e0      	LDI  R30,LOW(0)
001296 93ea      	ST   -Y,R30
001297 e0e0      	LDI  R30,LOW(0)
001298 e0f0      	LDI  R31,HIGH(0)
001299 93fa      	ST   -Y,R31
00129a 93ea      	ST   -Y,R30
00129b e0a9      	LDI  R26,LOW(9)
00129c 940c 056f 	JMP  _glcd_block
                 
                 ;OPTIMIZER ADDED SUBROUTINE, CALLED 3 TIMES, CODE SIZE REDUCTION:7 WORDS
                 SUBOPT_0x21:
00129e 81ae      	LDD  R26,Y+6
00129f 5faf      	SUBI R26,-LOW(1)
0012a0 83ae      	STD  Y+6,R26
0012a1 50a1      	SUBI R26,LOW(1)
                +
0012a2 91e0 01fc+LDS R30 , _glcd_state + ( 8 )
                 	__GETB1MN _glcd_state,8
0012a4 17ae      	CP   R26,R30
0012a5 9508      	RET
                 
                 ;OPTIMIZER ADDED SUBROUTINE, CALLED 3 TIMES, CODE SIZE REDUCTION:1 WORDS
                 SUBOPT_0x22:
0012a6 933a      	ST   -Y,R19
0012a7 85aa      	LDD  R26,Y+10
0012a8 940c 0874 	JMP  _glcd_putpixelm_G101
                 
                 ;OPTIMIZER ADDED SUBROUTINE, CALLED 2 TIMES, CODE SIZE REDUCTION:1 WORDS
                 SUBOPT_0x23:
0012aa 85a9      	LDD  R26,Y+9
0012ab 85ba      	LDD  R27,Y+9+1
0012ac 0fea      	ADD  R30,R26
0012ad 1ffb      	ADC  R31,R27
0012ae 87e9      	STD  Y+9,R30
0012af 87fa      	STD  Y+9+1,R31
0012b0 9508      	RET
                 
                 ;OPTIMIZER ADDED SUBROUTINE, CALLED 2 TIMES, CODE SIZE REDUCTION:1 WORDS
                 SUBOPT_0x24:
0012b1 85e9      	LDD  R30,Y+9
0012b2 85fa      	LDD  R31,Y+9+1
0012b3 1bea      	SUB  R30,R26
0012b4 0bfb      	SBC  R31,R27
0012b5 87e9      	STD  Y+9,R30
0012b6 87fa      	STD  Y+9+1,R31
0012b7 9508      	RET
                 
                 ;OPTIMIZER ADDED SUBROUTINE, CALLED 2 TIMES, CODE SIZE REDUCTION:1 WORDS
                 SUBOPT_0x25:
0012b8 e0f0      	LDI  R31,0
0012b9 1bae      	SUB  R26,R30
0012ba 0bbf      	SBC  R27,R31
0012bb 019d      	MOVW R18,R26
0012bc 89a9      	LDD  R26,Y+17
0012bd 27bb      	CLR  R27
0012be 9508      	RET
                 
                 ;OPTIMIZER ADDED SUBROUTINE, CALLED 2 TIMES, CODE SIZE REDUCTION:2 WORDS
                 SUBOPT_0x26:
0012bf e0f0      	LDI  R31,0
0012c0 0fea      	ADD  R30,R26
0012c1 1ffb      	ADC  R31,R27
0012c2 01af      	MOVW R20,R30
0012c3 85e8      	LDD  R30,Y+8
0012c4 78e1      	ANDI R30,LOW(0x81)
0012c5 38e1      	CPI  R30,LOW(0x81)
0012c6 9508      	RET
                 
                 ;OPTIMIZER ADDED SUBROUTINE, CALLED 4 TIMES, CODE SIZE REDUCTION:15 WORDS
                 SUBOPT_0x27:
0012c7 1bea      	SUB  R30,R26
0012c8 0bfb      	SBC  R31,R27
0012c9 010f      	MOVW R0,R30
0012ca 01df      	MOVW R26,R30
0012cb 85eb      	LDD  R30,Y+11
0012cc 85fc      	LDD  R31,Y+11+1
0012cd 17ae      	CP   R26,R30
0012ce 07bf      	CPC  R27,R31
0012cf 9508      	RET
                 
                 ;OPTIMIZER ADDED SUBROUTINE, CALLED 4 TIMES, CODE SIZE REDUCTION:3 WORDS
                 SUBOPT_0x28:
0012d0 85e9      	LDD  R30,Y+9
0012d1 85fa      	LDD  R31,Y+9+1
0012d2 15e0      	CP   R30,R0
0012d3 05f1      	CPC  R31,R1
0012d4 9508      	RET
                 
                 ;OPTIMIZER ADDED SUBROUTINE, CALLED 4 TIMES, CODE SIZE REDUCTION:3 WORDS
                 SUBOPT_0x29:
0012d5 930a      	ST   -Y,R16
0012d6 2fa2      	MOV  R26,R18
0012d7 940c 0770 	JMP  _glcd_setpixel
                 
                 ;OPTIMIZER ADDED SUBROUTINE, CALLED 2 TIMES, CODE SIZE REDUCTION:3 WORDS
                 SUBOPT_0x2A:
0012d9 930a      	ST   -Y,R16
0012da 2fa2      	MOV  R26,R18
0012db 50a2      	SUBI R26,LOW(2)
0012dc 940e 051b 	CALL _glcd_getpixel
0012de 2fae      	MOV  R26,R30
0012df 81ee      	LDD  R30,Y+6
0012e0 17ea      	CP   R30,R26
0012e1 9508      	RET
                 
                 ;OPTIMIZER ADDED SUBROUTINE, CALLED 3 TIMES, CODE SIZE REDUCTION:1 WORDS
                 SUBOPT_0x2B:
0012e2 85eb      	LDD  R30,Y+11
0012e3 85fc      	LDD  R31,Y+11+1
0012e4 17ae      	CP   R26,R30
0012e5 07bf      	CPC  R27,R31
0012e6 9508      	RET
                 
                 ;OPTIMIZER ADDED SUBROUTINE, CALLED 3 TIMES, CODE SIZE REDUCTION:1 WORDS
                 SUBOPT_0x2C:
0012e7 85e9      	LDD  R30,Y+9
0012e8 85fa      	LDD  R31,Y+9+1
0012e9 17ea      	CP   R30,R26
0012ea 07fb      	CPC  R31,R27
0012eb 9508      	RET
                 
                 ;OPTIMIZER ADDED SUBROUTINE, CALLED 4 TIMES, CODE SIZE REDUCTION:9 WORDS
                 SUBOPT_0x2D:
0012ec 930a      	ST   -Y,R16
0012ed 2fa4      	MOV  R26,R20
0012ee 940e 0770 	CALL _glcd_setpixel
0012f0 81af      	LDD  R26,Y+7
0012f1 30a2      	CPI  R26,LOW(0x2)
0012f2 9508      	RET
                 
                 ;OPTIMIZER ADDED SUBROUTINE, CALLED 2 TIMES, CODE SIZE REDUCTION:3 WORDS
                 SUBOPT_0x2E:
0012f3 930a      	ST   -Y,R16
0012f4 2fa4      	MOV  R26,R20
0012f5 5fae      	SUBI R26,-LOW(2)
0012f6 940e 051b 	CALL _glcd_getpixel
0012f8 2fae      	MOV  R26,R30
0012f9 81ee      	LDD  R30,Y+6
0012fa 17ea      	CP   R30,R26
0012fb 9508      	RET
                 
                 ;OPTIMIZER ADDED SUBROUTINE, CALLED 2 TIMES, CODE SIZE REDUCTION:2 WORDS
                 SUBOPT_0x2F:
0012fc 93ea      	ST   -Y,R30
0012fd 2fa2      	MOV  R26,R18
0012fe 940e 051b 	CALL _glcd_getpixel
001300 2fae      	MOV  R26,R30
001301 81ee      	LDD  R30,Y+6
001302 17ea      	CP   R30,R26
001303 9508      	RET
                 
                 ;OPTIMIZER ADDED SUBROUTINE, CALLED 2 TIMES, CODE SIZE REDUCTION:2 WORDS
                 SUBOPT_0x30:
001304 93ea      	ST   -Y,R30
001305 2fa4      	MOV  R26,R20
001306 940e 051b 	CALL _glcd_getpixel
001308 2fae      	MOV  R26,R30
001309 81ee      	LDD  R30,Y+6
00130a 17ea      	CP   R30,R26
00130b 9508      	RET
                 
                 ;OPTIMIZER ADDED SUBROUTINE, CALLED 3 TIMES, CODE SIZE REDUCTION:1 WORDS
                 SUBOPT_0x31:
00130c 85e9      	LDD  R30,Y+9
00130d 93ea      	ST   -Y,R30
00130e 85e9      	LDD  R30,Y+9
00130f 93ea      	ST   -Y,R30
001310 9508      	RET
                 
                 ;OPTIMIZER ADDED SUBROUTINE, CALLED 3 TIMES, CODE SIZE REDUCTION:3 WORDS
                 SUBOPT_0x32:
001311 91ed      	LD   R30,X+
001312 91fd      	LD   R31,X+
001313 9631      	ADIW R30,1
001314 93fe      	ST   -X,R31
001315 93ee      	ST   -X,R30
001316 9508      	RET
                 
                 ;OPTIMIZER ADDED SUBROUTINE, CALLED 2 TIMES, CODE SIZE REDUCTION:2 WORDS
                 SUBOPT_0x33:
001317 93ba      	ST   -Y,R27
001318 93aa      	ST   -Y,R26
001319 9724      	SBIW R28,4
00131a e0e0      	LDI  R30,LOW(0)
00131b 83e8      	ST   Y,R30
00131c 83e9      	STD  Y+1,R30
00131d 9508      	RET
                 
                 ;OPTIMIZER ADDED SUBROUTINE, CALLED 4 TIMES, CODE SIZE REDUCTION:33 WORDS
                 SUBOPT_0x34:
                +
00131e 81ac     +LDD R26 , Y + 4
00131f 81bd     +LDD R27 , Y + 4 + 1
001320 818e     +LDD R24 , Y + 4 + 2
001321 819f     +LDD R25 , Y + 4 + 3
                 	__GETD2S 4
                +
001322 e0e0     +LDI R30 , LOW ( 0x41200000 )
001323 e0f0     +LDI R31 , HIGH ( 0x41200000 )
001324 e260     +LDI R22 , BYTE3 ( 0x41200000 )
001325 e471     +LDI R23 , BYTE4 ( 0x41200000 )
                 	__GETD1N 0x41200000
001326 940e 1505 	CALL __MULF12
                +
001328 83ec     +STD Y + 4 , R30
001329 83fd     +STD Y + 4 + 1 , R31
00132a 836e     +STD Y + 4 + 2 , R22
00132b 837f     +STD Y + 4 + 3 , R23
                 	__PUTD1S 4
00132c 9508      	RET
                 
                 ;OPTIMIZER ADDED SUBROUTINE, CALLED 4 TIMES, CODE SIZE REDUCTION:21 WORDS
                 SUBOPT_0x35:
                +
00132d 81ec     +LDD R30 , Y + 4
00132e 81fd     +LDD R31 , Y + 4 + 1
00132f 816e     +LDD R22 , Y + 4 + 2
001330 817f     +LDD R23 , Y + 4 + 3
                 	__GETD1S 4
                +
001331 85ac     +LDD R26 , Y + 12
001332 85bd     +LDD R27 , Y + 12 + 1
001333 858e     +LDD R24 , Y + 12 + 2
001334 859f     +LDD R25 , Y + 12 + 3
                 	__GETD2S 12
001335 940e 1598 	CALL __CMPF12
001337 9508      	RET
                 
                 ;OPTIMIZER ADDED SUBROUTINE, CALLED 5 TIMES, CODE SIZE REDUCTION:5 WORDS
                 SUBOPT_0x36:
                +
001338 85ac     +LDD R26 , Y + 12
001339 85bd     +LDD R27 , Y + 12 + 1
00133a 858e     +LDD R24 , Y + 12 + 2
00133b 859f     +LDD R25 , Y + 12 + 3
                 	__GETD2S 12
00133c 9508      	RET
                 
                 ;OPTIMIZER ADDED SUBROUTINE, CALLED 2 TIMES, CODE SIZE REDUCTION:6 WORDS
                 SUBOPT_0x37:
                +
00133d eced     +LDI R30 , LOW ( 0x3DCCCCCD )
00133e ecfc     +LDI R31 , HIGH ( 0x3DCCCCCD )
00133f ec6c     +LDI R22 , BYTE3 ( 0x3DCCCCCD )
001340 e37d     +LDI R23 , BYTE4 ( 0x3DCCCCCD )
                 	__GETD1N 0x3DCCCCCD
001341 940e 1505 	CALL __MULF12
                +
001343 87ec     +STD Y + 12 , R30
001344 87fd     +STD Y + 12 + 1 , R31
001345 876e     +STD Y + 12 + 2 , R22
001346 877f     +STD Y + 12 + 3 , R23
                 	__PUTD1S 12
001347 5f3f      	SUBI R19,-LOW(1)
001348 9508      	RET
                 
                 ;OPTIMIZER ADDED SUBROUTINE, CALLED 3 TIMES, CODE SIZE REDUCTION:5 WORDS
                 SUBOPT_0x38:
                +
001349 e0e0     +LDI R30 , LOW ( 0x41200000 )
00134a e0f0     +LDI R31 , HIGH ( 0x41200000 )
00134b e260     +LDI R22 , BYTE3 ( 0x41200000 )
00134c e471     +LDI R23 , BYTE4 ( 0x41200000 )
                 	__GETD1N 0x41200000
00134d 940e 1505 	CALL __MULF12
00134f 9508      	RET
                 
                 ;OPTIMIZER ADDED SUBROUTINE, CALLED 3 TIMES, CODE SIZE REDUCTION:1 WORDS
                 SUBOPT_0x39:
                +
001350 87ec     +STD Y + 12 , R30
001351 87fd     +STD Y + 12 + 1 , R31
001352 876e     +STD Y + 12 + 2 , R22
001353 877f     +STD Y + 12 + 3 , R23
                 	__PUTD1S 12
001354 9508      	RET
                 
                 ;OPTIMIZER ADDED SUBROUTINE, CALLED 3 TIMES, CODE SIZE REDUCTION:5 WORDS
                 SUBOPT_0x3A:
                +
001355 e0a0     +LDI R26 , LOW ( 0x3F000000 )
001356 e0b0     +LDI R27 , HIGH ( 0x3F000000 )
001357 e080     +LDI R24 , BYTE3 ( 0x3F000000 )
001358 e39f     +LDI R25 , BYTE4 ( 0x3F000000 )
                 	__GETD2N 0x3F000000
001359 940e 14b5 	CALL __ADDF12
00135b 9508      	RET
                 
                 ;OPTIMIZER ADDED SUBROUTINE, CALLED 3 TIMES, CODE SIZE REDUCTION:5 WORDS
                 SUBOPT_0x3B:
                +
00135c eced     +LDI R30 , LOW ( 0x3DCCCCCD )
00135d ecfc     +LDI R31 , HIGH ( 0x3DCCCCCD )
00135e ec6c     +LDI R22 , BYTE3 ( 0x3DCCCCCD )
00135f e37d     +LDI R23 , BYTE4 ( 0x3DCCCCCD )
                 	__GETD1N 0x3DCCCCCD
001360 940e 1505 	CALL __MULF12
001362 9508      	RET
                 
                 ;OPTIMIZER ADDED SUBROUTINE, CALLED 2 TIMES, CODE SIZE REDUCTION:1 WORDS
                 SUBOPT_0x3C:
001363 85a8      	LDD  R26,Y+8
001364 85b9      	LDD  R27,Y+8+1
001365 9611      	ADIW R26,1
001366 87a8      	STD  Y+8,R26
001367 87b9      	STD  Y+8+1,R27
001368 9711      	SBIW R26,1
001369 9508      	RET
                 
                 ;OPTIMIZER ADDED SUBROUTINE, CALLED 3 TIMES, CODE SIZE REDUCTION:1 WORDS
                 SUBOPT_0x3D:
00136a 2fe0      	MOV  R30,R16
00136b 5de0      	SUBI R30,-LOW(48)
00136c 93ec      	ST   X,R30
00136d 2fe0      	MOV  R30,R16
00136e 9508      	RET
                 
                 ;OPTIMIZER ADDED SUBROUTINE, CALLED 3 TIMES, CODE SIZE REDUCTION:1 WORDS
                 SUBOPT_0x3E:
00136f 940e 166c 	CALL __SWAPD12
001371 940e 14ae 	CALL __SUBF12
001373 9508      	RET
                 
                 ;OPTIMIZER ADDED SUBROUTINE, CALLED 4 TIMES, CODE SIZE REDUCTION:6 WORDS
                 SUBOPT_0x3F:
001374 85e8      	LDD  R30,Y+8
001375 85f9      	LDD  R31,Y+8+1
001376 9631      	ADIW R30,1
001377 87e8      	STD  Y+8,R30
001378 87f9      	STD  Y+8+1,R31
001379 9508      	RET
                 
                 ;OPTIMIZER ADDED SUBROUTINE, CALLED 5 TIMES, CODE SIZE REDUCTION:13 WORDS
                 SUBOPT_0x40:
00137a 932a      	ST   -Y,R18
00137b 81af      	LDD  R26,Y+7
00137c 85b8      	LDD  R27,Y+7+1
00137d 85e9      	LDD  R30,Y+9
00137e 85fa      	LDD  R31,Y+9+1
00137f 9509      	ICALL
001380 9508      	RET
                 
                 ;OPTIMIZER ADDED SUBROUTINE, CALLED 8 TIMES, CODE SIZE REDUCTION:25 WORDS
                 SUBOPT_0x41:
                +
001381 01fe     +MOVW R30 , R28
001382 5ae6     +SUBI R30 , LOW ( - 90 )
001383 4fff     +SBCI R31 , HIGH ( - 90 )
001384 9001     +LD R0 , Z +
001385 81f0     +LD R31 , Z
001386 2de0     +MOV R30 , R0
                 	__GETW1SX 90
001387 9508      	RET
                 
                 ;OPTIMIZER ADDED SUBROUTINE, CALLED 7 TIMES, CODE SIZE REDUCTION:21 WORDS
                 SUBOPT_0x42:
001388 9734      	SBIW R30,4
                +
001389 01de     +MOVW R26 , R28
00138a 5aa6     +SUBI R26 , LOW ( - 90 )
00138b 4fbf     +SBCI R27 , HIGH ( - 90 )
00138c 93ed     +ST X + , R30
00138d 93fc     +ST X , R31
                 	__PUTW1SX 90
00138e 9508      	RET
                 
                 ;OPTIMIZER ADDED SUBROUTINE, CALLED 4 TIMES, CODE SIZE REDUCTION:6 WORDS
                 SUBOPT_0x43:
00138f 81af      	LDD  R26,Y+7
001390 85b8      	LDD  R27,Y+7+1
001391 85e9      	LDD  R30,Y+9
001392 85fa      	LDD  R31,Y+9+1
001393 9509      	ICALL
001394 9508      	RET
                 
                 ;OPTIMIZER ADDED SUBROUTINE, CALLED 6 TIMES, CODE SIZE REDUCTION:17 WORDS
                 SUBOPT_0x44:
                +
001395 01de     +MOVW R26 , R28
001396 5aa6     +SUBI R26 , LOW ( - 90 )
001397 4fbf     +SBCI R27 , HIGH ( - 90 )
001398 900d     +LD R0 , X +
001399 91bc     +LD R27 , X
00139a 2da0     +MOV R26 , R0
                 	__GETW2SX 90
00139b 9508      	RET
                 
                 ;OPTIMIZER ADDED SUBROUTINE, CALLED 4 TIMES, CODE SIZE REDUCTION:3 WORDS
                 SUBOPT_0x45:
                +
00139c 87ea     +STD Y + 10 , R30
00139d 87fb     +STD Y + 10 + 1 , R31
00139e 876c     +STD Y + 10 + 2 , R22
00139f 877d     +STD Y + 10 + 3 , R23
                 	__PUTD1S 10
0013a0 9508      	RET
                 
                 ;OPTIMIZER ADDED SUBROUTINE, CALLED 6 TIMES, CODE SIZE REDUCTION:7 WORDS
                 SUBOPT_0x46:
0013a1 dfdf      	RCALL SUBOPT_0x41
0013a2 cfe5      	RJMP SUBOPT_0x42
                 
                 ;OPTIMIZER ADDED SUBROUTINE, CALLED 4 TIMES, CODE SIZE REDUCTION:3 WORDS
                 SUBOPT_0x47:
                +
0013a3 85ea     +LDD R30 , Y + 10
0013a4 85fb     +LDD R31 , Y + 10 + 1
0013a5 856c     +LDD R22 , Y + 10 + 2
0013a6 857d     +LDD R23 , Y + 10 + 3
                 	__GETD1S 10
0013a7 9508      	RET
                 
                 ;OPTIMIZER ADDED SUBROUTINE, CALLED 2 TIMES, CODE SIZE REDUCTION:2 WORDS
                 SUBOPT_0x48:
0013a8 87ee      	STD  Y+14,R30
0013a9 87ff      	STD  Y+14+1,R31
0013aa 85ae      	LDD  R26,Y+14
0013ab 85bf      	LDD  R27,Y+14+1
0013ac 940e 10ab 	CALL _strlen
0013ae 2f1e      	MOV  R17,R30
0013af 9508      	RET
                 
                 ;OPTIMIZER ADDED SUBROUTINE, CALLED 4 TIMES, CODE SIZE REDUCTION:6 WORDS
                 SUBOPT_0x49:
0013b0 dfe4      	RCALL SUBOPT_0x44
0013b1 9614      	ADIW R26,4
0013b2 940e 1649 	CALL __GETW1P
0013b4 9508      	RET
                 
                 ;OPTIMIZER ADDED SUBROUTINE, CALLED 5 TIMES, CODE SIZE REDUCTION:5 WORDS
                 SUBOPT_0x4A:
                +
0013b5 8be8     +STD Y + 16 , R30
0013b6 8bf9     +STD Y + 16 + 1 , R31
0013b7 8b6a     +STD Y + 16 + 2 , R22
0013b8 8b7b     +STD Y + 16 + 3 , R23
                 	__PUTD1S 16
0013b9 9508      	RET
                 
                 ;OPTIMIZER ADDED SUBROUTINE, CALLED 2 TIMES, CODE SIZE REDUCTION:12 WORDS
                 SUBOPT_0x4B:
0013ba 7f0b      	ANDI R16,LOW(251)
0013bb 89ed      	LDD  R30,Y+21
0013bc 93ea      	ST   -Y,R30
                +
0013bd 01de     +MOVW R26 , R28
0013be 5aa9     +SUBI R26 , LOW ( - 87 )
0013bf 4fbf     +SBCI R27 , HIGH ( - 87 )
0013c0 900d     +LD R0 , X +
0013c1 91bc     +LD R27 , X
0013c2 2da0     +MOV R26 , R0
                 	__GETW2SX 87
                +
0013c3 01fe     +MOVW R30 , R28
0013c4 5ae7     +SUBI R30 , LOW ( - 89 )
0013c5 4fff     +SBCI R31 , HIGH ( - 89 )
0013c6 9001     +LD R0 , Z +
0013c7 81f0     +LD R31 , Z
0013c8 2de0     +MOV R30 , R0
                 	__GETW1SX 89
0013c9 9509      	ICALL
0013ca 3050      	CPI  R21,0
0013cb 9508      	RET
                 
                 ;OPTIMIZER ADDED SUBROUTINE, CALLED 2 TIMES, CODE SIZE REDUCTION:3 WORDS
                 SUBOPT_0x4C:
                +
0013cc 89e8     +LDD R30 , Y + 16
0013cd 89f9     +LDD R31 , Y + 16 + 1
0013ce 896a     +LDD R22 , Y + 16 + 2
0013cf 897b     +LDD R23 , Y + 16 + 3
                 	__GETD1S 16
                +
0013d0 85aa     +LDD R26 , Y + 10
0013d1 85bb     +LDD R27 , Y + 10 + 1
0013d2 858c     +LDD R24 , Y + 10 + 2
0013d3 859d     +LDD R25 , Y + 10 + 3
                 	__GETD2S 10
0013d4 9508      	RET
                 
                 ;OPTIMIZER ADDED SUBROUTINE, CALLED 2 TIMES, CODE SIZE REDUCTION:1 WORDS
                 SUBOPT_0x4D:
0013d5 01de      	MOVW R26,R28
0013d6 961c      	ADIW R26,12
0013d7 940e 15b8 	CALL __ADDW2R15
0013d9 940e 1649 	CALL __GETW1P
0013db 9508      	RET
                 
                 ;OPTIMIZER ADDED SUBROUTINE, CALLED 3 TIMES, CODE SIZE REDUCTION:1 WORDS
                 SUBOPT_0x4E:
0013dc 81ee      	LDD  R30,Y+6
0013dd 81ff      	LDD  R31,Y+6+1
0013de 93fa      	ST   -Y,R31
0013df 93ea      	ST   -Y,R30
0013e0 9508      	RET
                 
                 ;OPTIMIZER ADDED SUBROUTINE, CALLED 5 TIMES, CODE SIZE REDUCTION:5 WORDS
                 SUBOPT_0x4F:
                +
0013e1 87e9     +STD Y + 9 , R30
0013e2 87fa     +STD Y + 9 + 1 , R31
0013e3 876b     +STD Y + 9 + 2 , R22
0013e4 877c     +STD Y + 9 + 3 , R23
                 	__PUTD1S 9
0013e5 9508      	RET
                 
                 ;OPTIMIZER ADDED SUBROUTINE, CALLED 5 TIMES, CODE SIZE REDUCTION:13 WORDS
                 SUBOPT_0x50:
0013e6 81ae      	LDD  R26,Y+6
0013e7 81bf      	LDD  R27,Y+6+1
0013e8 9611      	ADIW R26,1
0013e9 83ae      	STD  Y+6,R26
0013ea 83bf      	STD  Y+6+1,R27
0013eb 9711      	SBIW R26,1
0013ec 9508      	RET
                 
                 ;OPTIMIZER ADDED SUBROUTINE, CALLED 4 TIMES, CODE SIZE REDUCTION:3 WORDS
                 SUBOPT_0x51:
                +
0013ed 81aa     +LDD R26 , Y + 2
0013ee 81bb     +LDD R27 , Y + 2 + 1
0013ef 818c     +LDD R24 , Y + 2 + 2
0013f0 819d     +LDD R25 , Y + 2 + 3
                 	__GETD2S 2
0013f1 9508      	RET
                 
                 ;OPTIMIZER ADDED SUBROUTINE, CALLED 4 TIMES, CODE SIZE REDUCTION:3 WORDS
                 SUBOPT_0x52:
                +
0013f2 83ea     +STD Y + 2 , R30
0013f3 83fb     +STD Y + 2 + 1 , R31
0013f4 836c     +STD Y + 2 + 2 , R22
0013f5 837d     +STD Y + 2 + 3 , R23
                 	__PUTD1S 2
0013f6 9508      	RET
                 
                 ;OPTIMIZER ADDED SUBROUTINE, CALLED 3 TIMES, CODE SIZE REDUCTION:9 WORDS
                 SUBOPT_0x53:
                +
0013f7 81ea     +LDD R30 , Y + 2
0013f8 81fb     +LDD R31 , Y + 2 + 1
0013f9 816c     +LDD R22 , Y + 2 + 2
0013fa 817d     +LDD R23 , Y + 2 + 3
                 	__GETD1S 2
                +
0013fb 85a9     +LDD R26 , Y + 9
0013fc 85ba     +LDD R27 , Y + 9 + 1
0013fd 858b     +LDD R24 , Y + 9 + 2
0013fe 859c     +LDD R25 , Y + 9 + 3
                 	__GETD2S 9
0013ff 9508      	RET
                 
                 ;OPTIMIZER ADDED SUBROUTINE, CALLED 3 TIMES, CODE SIZE REDUCTION:1 WORDS
                 SUBOPT_0x54:
                +
001400 85a9     +LDD R26 , Y + 9
001401 85ba     +LDD R27 , Y + 9 + 1
001402 858b     +LDD R24 , Y + 9 + 2
001403 859c     +LDD R25 , Y + 9 + 3
                 	__GETD2S 9
001404 9508      	RET
                 
                 
                 	.CSEG
                 _delay_ms:
001405 9610      	adiw r26,0
001406 f039      	breq __delay_ms1
                 __delay_ms0:
                +
001407 ed80     +LDI R24 , LOW ( 0x7D0 )
001408 e097     +LDI R25 , HIGH ( 0x7D0 )
                +__DELAY_USW_LOOP :
001409 9701     +SBIW R24 , 1
00140a f7f1     +BRNE __DELAY_USW_LOOP
                 	__DELAY_USW 0x7D0
00140b 95a8      	wdr
00140c 9711      	sbiw r26,1
00140d f7c9      	brne __delay_ms0
                 __delay_ms1:
00140e 9508      	ret
                 
                 __ANEGF1:
00140f 9730      	SBIW R30,0
001410 4060      	SBCI R22,0
001411 4070      	SBCI R23,0
001412 f009      	BREQ __ANEGF10
001413 5870      	SUBI R23,0x80
                 __ANEGF10:
001414 9508      	RET
                 
                 __ROUND_REPACK:
001415 2355      	TST  R21
001416 f442      	BRPL __REPACK
001417 3850      	CPI  R21,0x80
001418 f411      	BRNE __ROUND_REPACK0
001419 ffe0      	SBRS R30,0
00141a c004      	RJMP __REPACK
                 __ROUND_REPACK0:
00141b 9631      	ADIW R30,1
00141c 1f69      	ADC  R22,R25
00141d 1f79      	ADC  R23,R25
00141e f06b      	BRVS __REPACK1
                 
                 __REPACK:
00141f e850      	LDI  R21,0x80
001420 2757      	EOR  R21,R23
001421 f411      	BRNE __REPACK0
001422 935f      	PUSH R21
001423 c0cf      	RJMP __ZERORES
                 __REPACK0:
001424 3f5f      	CPI  R21,0xFF
001425 f031      	BREQ __REPACK1
001426 0f66      	LSL  R22
001427 0c00      	LSL  R0
001428 9557      	ROR  R21
001429 9567      	ROR  R22
00142a 2f75      	MOV  R23,R21
00142b 9508      	RET
                 __REPACK1:
00142c 935f      	PUSH R21
00142d 2000      	TST  R0
00142e f00a      	BRMI __REPACK2
00142f c0cf      	RJMP __MAXRES
                 __REPACK2:
001430 c0c8      	RJMP __MINRES
                 
                 __UNPACK:
001431 e850      	LDI  R21,0x80
001432 2e19      	MOV  R1,R25
001433 2215      	AND  R1,R21
001434 0f88      	LSL  R24
001435 1f99      	ROL  R25
001436 2795      	EOR  R25,R21
001437 0f55      	LSL  R21
001438 9587      	ROR  R24
                 
                 __UNPACK1:
001439 e850      	LDI  R21,0x80
00143a 2e07      	MOV  R0,R23
00143b 2205      	AND  R0,R21
00143c 0f66      	LSL  R22
00143d 1f77      	ROL  R23
00143e 2775      	EOR  R23,R21
00143f 0f55      	LSL  R21
001440 9567      	ROR  R22
001441 9508      	RET
                 
                 __CFD1U:
001442 9468      	SET
001443 c001      	RJMP __CFD1U0
                 __CFD1:
001444 94e8      	CLT
                 __CFD1U0:
001445 935f      	PUSH R21
001446 dff2      	RCALL __UNPACK1
001447 3870      	CPI  R23,0x80
001448 f018      	BRLO __CFD10
001449 3f7f      	CPI  R23,0xFF
00144a f408      	BRCC __CFD10
00144b c0a7      	RJMP __ZERORES
                 __CFD10:
00144c e156      	LDI  R21,22
00144d 1b57      	SUB  R21,R23
00144e f4aa      	BRPL __CFD11
00144f 9551      	NEG  R21
001450 3058      	CPI  R21,8
001451 f40e      	BRTC __CFD19
001452 3059      	CPI  R21,9
                 __CFD19:
001453 f030      	BRLO __CFD17
001454 efef      	SER  R30
001455 efff      	SER  R31
001456 ef6f      	SER  R22
001457 e77f      	LDI  R23,0x7F
001458 f977      	BLD  R23,7
001459 c01a      	RJMP __CFD15
                 __CFD17:
00145a 2777      	CLR  R23
00145b 2355      	TST  R21
00145c f0b9      	BREQ __CFD15
                 __CFD18:
00145d 0fee      	LSL  R30
00145e 1fff      	ROL  R31
00145f 1f66      	ROL  R22
001460 1f77      	ROL  R23
001461 955a      	DEC  R21
001462 f7d1      	BRNE __CFD18
001463 c010      	RJMP __CFD15
                 __CFD11:
001464 2777      	CLR  R23
                 __CFD12:
001465 3058      	CPI  R21,8
001466 f028      	BRLO __CFD13
001467 2fef      	MOV  R30,R31
001468 2ff6      	MOV  R31,R22
001469 2f67      	MOV  R22,R23
00146a 5058      	SUBI R21,8
00146b cff9      	RJMP __CFD12
                 __CFD13:
00146c 2355      	TST  R21
00146d f031      	BREQ __CFD15
                 __CFD14:
00146e 9576      	LSR  R23
00146f 9567      	ROR  R22
001470 95f7      	ROR  R31
001471 95e7      	ROR  R30
001472 955a      	DEC  R21
001473 f7d1      	BRNE __CFD14
                 __CFD15:
001474 2000      	TST  R0
001475 f40a      	BRPL __CFD16
001476 d149      	RCALL __ANEGD1
                 __CFD16:
001477 915f      	POP  R21
001478 9508      	RET
                 
                 __CDF1U:
001479 9468      	SET
00147a c001      	RJMP __CDF1U0
                 __CDF1:
00147b 94e8      	CLT
                 __CDF1U0:
00147c 9730      	SBIW R30,0
00147d 4060      	SBCI R22,0
00147e 4070      	SBCI R23,0
00147f f0b1      	BREQ __CDF10
001480 2400      	CLR  R0
001481 f026      	BRTS __CDF11
001482 2377      	TST  R23
001483 f412      	BRPL __CDF11
001484 9400      	COM  R0
001485 d13a      	RCALL __ANEGD1
                 __CDF11:
001486 2e17      	MOV  R1,R23
001487 e17e      	LDI  R23,30
001488 2011      	TST  R1
                 __CDF12:
001489 f032      	BRMI __CDF13
00148a 957a      	DEC  R23
00148b 0fee      	LSL  R30
00148c 1fff      	ROL  R31
00148d 1f66      	ROL  R22
00148e 1c11      	ROL  R1
00148f cff9      	RJMP __CDF12
                 __CDF13:
001490 2fef      	MOV  R30,R31
001491 2ff6      	MOV  R31,R22
001492 2d61      	MOV  R22,R1
001493 935f      	PUSH R21
001494 df8a      	RCALL __REPACK
001495 915f      	POP  R21
                 __CDF10:
001496 9508      	RET
                 
                 __SWAPACC:
001497 934f      	PUSH R20
001498 01af      	MOVW R20,R30
001499 01fd      	MOVW R30,R26
00149a 01da      	MOVW R26,R20
00149b 01ab      	MOVW R20,R22
00149c 01bc      	MOVW R22,R24
00149d 01ca      	MOVW R24,R20
00149e 2d40      	MOV  R20,R0
00149f 2c01      	MOV  R0,R1
0014a0 2e14      	MOV  R1,R20
0014a1 914f      	POP  R20
0014a2 9508      	RET
                 
                 __UADD12:
0014a3 0fea      	ADD  R30,R26
0014a4 1ffb      	ADC  R31,R27
0014a5 1f68      	ADC  R22,R24
0014a6 9508      	RET
                 
                 __NEGMAN1:
0014a7 95e0      	COM  R30
0014a8 95f0      	COM  R31
0014a9 9560      	COM  R22
0014aa 5fef      	SUBI R30,-1
0014ab 4fff      	SBCI R31,-1
0014ac 4f6f      	SBCI R22,-1
0014ad 9508      	RET
                 
                 __SUBF12:
0014ae 935f      	PUSH R21
0014af df81      	RCALL __UNPACK
0014b0 3890      	CPI  R25,0x80
0014b1 f171      	BREQ __ADDF129
0014b2 e850      	LDI  R21,0x80
0014b3 2615      	EOR  R1,R21
                 
0014b4 c004      	RJMP __ADDF120
                 
                 __ADDF12:
0014b5 935f      	PUSH R21
0014b6 df7a      	RCALL __UNPACK
0014b7 3890      	CPI  R25,0x80
0014b8 f139      	BREQ __ADDF129
                 
                 __ADDF120:
0014b9 3870      	CPI  R23,0x80
0014ba f121      	BREQ __ADDF128
                 __ADDF121:
0014bb 2f57      	MOV  R21,R23
0014bc 1b59      	SUB  R21,R25
0014bd f12b      	BRVS __ADDF1211
0014be f412      	BRPL __ADDF122
0014bf dfd7      	RCALL __SWAPACC
0014c0 cffa      	RJMP __ADDF121
                 __ADDF122:
0014c1 3158      	CPI  R21,24
0014c2 f018      	BRLO __ADDF123
0014c3 27aa      	CLR  R26
0014c4 27bb      	CLR  R27
0014c5 2788      	CLR  R24
                 __ADDF123:
0014c6 3058      	CPI  R21,8
0014c7 f028      	BRLO __ADDF124
0014c8 2fab      	MOV  R26,R27
0014c9 2fb8      	MOV  R27,R24
0014ca 2788      	CLR  R24
0014cb 5058      	SUBI R21,8
0014cc cff9      	RJMP __ADDF123
                 __ADDF124:
0014cd 2355      	TST  R21
0014ce f029      	BREQ __ADDF126
                 __ADDF125:
0014cf 9586      	LSR  R24
0014d0 95b7      	ROR  R27
0014d1 95a7      	ROR  R26
0014d2 955a      	DEC  R21
0014d3 f7d9      	BRNE __ADDF125
                 __ADDF126:
0014d4 2d50      	MOV  R21,R0
0014d5 2551      	EOR  R21,R1
0014d6 f072      	BRMI __ADDF127
0014d7 dfcb      	RCALL __UADD12
0014d8 f438      	BRCC __ADDF129
0014d9 9567      	ROR  R22
0014da 95f7      	ROR  R31
0014db 95e7      	ROR  R30
0014dc 9573      	INC  R23
0014dd f413      	BRVC __ADDF129
0014de c020      	RJMP __MAXRES
                 __ADDF128:
0014df dfb7      	RCALL __SWAPACC
                 __ADDF129:
0014e0 df3e      	RCALL __REPACK
0014e1 915f      	POP  R21
0014e2 9508      	RET
                 __ADDF1211:
0014e3 f7d8      	BRCC __ADDF128
0014e4 cffb      	RJMP __ADDF129
                 __ADDF127:
0014e5 1bea      	SUB  R30,R26
0014e6 0bfb      	SBC  R31,R27
0014e7 0b68      	SBC  R22,R24
0014e8 f051      	BREQ __ZERORES
0014e9 f410      	BRCC __ADDF1210
0014ea 9400      	COM  R0
0014eb dfbb      	RCALL __NEGMAN1
                 __ADDF1210:
0014ec 2366      	TST  R22
0014ed f392      	BRMI __ADDF129
0014ee 0fee      	LSL  R30
0014ef 1fff      	ROL  R31
0014f0 1f66      	ROL  R22
0014f1 957a      	DEC  R23
0014f2 f7cb      	BRVC __ADDF1210
                 
                 __ZERORES:
0014f3 27ee      	CLR  R30
0014f4 27ff      	CLR  R31
0014f5 2766      	CLR  R22
0014f6 2777      	CLR  R23
0014f7 915f      	POP  R21
0014f8 9508      	RET
                 
                 __MINRES:
0014f9 efef      	SER  R30
0014fa efff      	SER  R31
0014fb e76f      	LDI  R22,0x7F
0014fc ef7f      	SER  R23
0014fd 915f      	POP  R21
0014fe 9508      	RET
                 
                 __MAXRES:
0014ff efef      	SER  R30
001500 efff      	SER  R31
001501 e76f      	LDI  R22,0x7F
001502 e77f      	LDI  R23,0x7F
001503 915f      	POP  R21
001504 9508      	RET
                 
                 __MULF12:
001505 935f      	PUSH R21
001506 df2a      	RCALL __UNPACK
001507 3870      	CPI  R23,0x80
001508 f351      	BREQ __ZERORES
001509 3890      	CPI  R25,0x80
00150a f341      	BREQ __ZERORES
00150b 2401      	EOR  R0,R1
00150c 9408      	SEC
00150d 1f79      	ADC  R23,R25
00150e f423      	BRVC __MULF124
00150f f31c      	BRLT __ZERORES
                 __MULF125:
001510 2000      	TST  R0
001511 f33a      	BRMI __MINRES
001512 cfec      	RJMP __MAXRES
                 __MULF124:
001513 920f      	PUSH R0
001514 931f      	PUSH R17
001515 932f      	PUSH R18
001516 933f      	PUSH R19
001517 934f      	PUSH R20
001518 2711      	CLR  R17
001519 2722      	CLR  R18
00151a 2799      	CLR  R25
00151b 9f68      	MUL  R22,R24
00151c 01a0      	MOVW R20,R0
00151d 9f8f      	MUL  R24,R31
00151e 2d30      	MOV  R19,R0
00151f 0d41      	ADD  R20,R1
001520 1f59      	ADC  R21,R25
001521 9f6b      	MUL  R22,R27
001522 0d30      	ADD  R19,R0
001523 1d41      	ADC  R20,R1
001524 1f59      	ADC  R21,R25
001525 9f8e      	MUL  R24,R30
001526 d027      	RCALL __MULF126
001527 9fbf      	MUL  R27,R31
001528 d025      	RCALL __MULF126
001529 9f6a      	MUL  R22,R26
00152a d023      	RCALL __MULF126
00152b 9fbe      	MUL  R27,R30
00152c d01d      	RCALL __MULF127
00152d 9faf      	MUL  R26,R31
00152e d01b      	RCALL __MULF127
00152f 9fae      	MUL  R26,R30
001530 0d11      	ADD  R17,R1
001531 1f29      	ADC  R18,R25
001532 1f39      	ADC  R19,R25
001533 1f49      	ADC  R20,R25
001534 1f59      	ADC  R21,R25
001535 2fe3      	MOV  R30,R19
001536 2ff4      	MOV  R31,R20
001537 2f65      	MOV  R22,R21
001538 2f52      	MOV  R21,R18
001539 914f      	POP  R20
00153a 913f      	POP  R19
00153b 912f      	POP  R18
00153c 911f      	POP  R17
00153d 900f      	POP  R0
00153e 2366      	TST  R22
00153f f02a      	BRMI __MULF122
001540 0f55      	LSL  R21
001541 1fee      	ROL  R30
001542 1fff      	ROL  R31
001543 1f66      	ROL  R22
001544 c002      	RJMP __MULF123
                 __MULF122:
001545 9573      	INC  R23
001546 f24b      	BRVS __MULF125
                 __MULF123:
001547 decd      	RCALL __ROUND_REPACK
001548 915f      	POP  R21
001549 9508      	RET
                 
                 __MULF127:
00154a 0d10      	ADD  R17,R0
00154b 1d21      	ADC  R18,R1
00154c 1f39      	ADC  R19,R25
00154d c002      	RJMP __MULF128
                 __MULF126:
00154e 0d20      	ADD  R18,R0
00154f 1d31      	ADC  R19,R1
                 __MULF128:
001550 1f49      	ADC  R20,R25
001551 1f59      	ADC  R21,R25
001552 9508      	RET
                 
                 __DIVF21:
001553 935f      	PUSH R21
001554 dedc      	RCALL __UNPACK
001555 3870      	CPI  R23,0x80
001556 f421      	BRNE __DIVF210
001557 2011      	TST  R1
                 __DIVF211:
001558 f40a      	BRPL __DIVF219
001559 cf9f      	RJMP __MINRES
                 __DIVF219:
00155a cfa4      	RJMP __MAXRES
                 __DIVF210:
00155b 3890      	CPI  R25,0x80
00155c f409      	BRNE __DIVF218
                 __DIVF217:
00155d cf95      	RJMP __ZERORES
                 __DIVF218:
00155e 2401      	EOR  R0,R1
00155f 9408      	SEC
001560 0b97      	SBC  R25,R23
001561 f41b      	BRVC __DIVF216
001562 f3d4      	BRLT __DIVF217
001563 2000      	TST  R0
001564 cff3      	RJMP __DIVF211
                 __DIVF216:
001565 2f79      	MOV  R23,R25
001566 931f      	PUSH R17
001567 932f      	PUSH R18
001568 933f      	PUSH R19
001569 934f      	PUSH R20
00156a 2411      	CLR  R1
00156b 2711      	CLR  R17
00156c 2722      	CLR  R18
00156d 2733      	CLR  R19
00156e 2744      	CLR  R20
00156f 2755      	CLR  R21
001570 e290      	LDI  R25,32
                 __DIVF212:
001571 17ae      	CP   R26,R30
001572 07bf      	CPC  R27,R31
001573 0786      	CPC  R24,R22
001574 0741      	CPC  R20,R17
001575 f030      	BRLO __DIVF213
001576 1bae      	SUB  R26,R30
001577 0bbf      	SBC  R27,R31
001578 0b86      	SBC  R24,R22
001579 0b41      	SBC  R20,R17
00157a 9408      	SEC
00157b c001      	RJMP __DIVF214
                 __DIVF213:
00157c 9488      	CLC
                 __DIVF214:
00157d 1f55      	ROL  R21
00157e 1f22      	ROL  R18
00157f 1f33      	ROL  R19
001580 1c11      	ROL  R1
001581 1faa      	ROL  R26
001582 1fbb      	ROL  R27
001583 1f88      	ROL  R24
001584 1f44      	ROL  R20
001585 959a      	DEC  R25
001586 f751      	BRNE __DIVF212
001587 01f9      	MOVW R30,R18
001588 2d61      	MOV  R22,R1
001589 914f      	POP  R20
00158a 913f      	POP  R19
00158b 912f      	POP  R18
00158c 911f      	POP  R17
00158d 2366      	TST  R22
00158e f032      	BRMI __DIVF215
00158f 0f55      	LSL  R21
001590 1fee      	ROL  R30
001591 1fff      	ROL  R31
001592 1f66      	ROL  R22
001593 957a      	DEC  R23
001594 f243      	BRVS __DIVF217
                 __DIVF215:
001595 de7f      	RCALL __ROUND_REPACK
001596 915f      	POP  R21
001597 9508      	RET
                 
                 __CMPF12:
001598 2399      	TST  R25
001599 f09a      	BRMI __CMPF120
00159a 2377      	TST  R23
00159b f042      	BRMI __CMPF121
00159c 1797      	CP   R25,R23
00159d f048      	BRLO __CMPF122
00159e f429      	BRNE __CMPF121
00159f 17ae      	CP   R26,R30
0015a0 07bf      	CPC  R27,R31
0015a1 0786      	CPC  R24,R22
0015a2 f020      	BRLO __CMPF122
0015a3 f031      	BREQ __CMPF123
                 __CMPF121:
0015a4 9498      	CLZ
0015a5 9488      	CLC
0015a6 9508      	RET
                 __CMPF122:
0015a7 9498      	CLZ
0015a8 9408      	SEC
0015a9 9508      	RET
                 __CMPF123:
0015aa 9418      	SEZ
0015ab 9488      	CLC
0015ac 9508      	RET
                 __CMPF120:
0015ad 2377      	TST  R23
0015ae f7c2      	BRPL __CMPF122
0015af 1797      	CP   R25,R23
0015b0 f398      	BRLO __CMPF121
0015b1 f7a9      	BRNE __CMPF122
0015b2 17ea      	CP   R30,R26
0015b3 07fb      	CPC  R31,R27
0015b4 0768      	CPC  R22,R24
0015b5 f388      	BRLO __CMPF122
0015b6 f399      	BREQ __CMPF123
0015b7 cfec      	RJMP __CMPF121
                 
                 __ADDW2R15:
0015b8 2400      	CLR  R0
0015b9 0daf      	ADD  R26,R15
0015ba 1db0      	ADC  R27,R0
0015bb 9508      	RET
                 
                 __ANEGW1:
0015bc 95f1      	NEG  R31
0015bd 95e1      	NEG  R30
0015be 40f0      	SBCI R31,0
0015bf 9508      	RET
                 
                 __ANEGD1:
0015c0 95f0      	COM  R31
0015c1 9560      	COM  R22
0015c2 9570      	COM  R23
0015c3 95e1      	NEG  R30
0015c4 4fff      	SBCI R31,-1
0015c5 4f6f      	SBCI R22,-1
0015c6 4f7f      	SBCI R23,-1
0015c7 9508      	RET
                 
                 __LSLB12:
0015c8 23ee      	TST  R30
0015c9 2e0e      	MOV  R0,R30
0015ca 2fea      	MOV  R30,R26
0015cb f019      	BREQ __LSLB12R
                 __LSLB12L:
0015cc 0fee      	LSL  R30
0015cd 940a      	DEC  R0
0015ce f7e9      	BRNE __LSLB12L
                 __LSLB12R:
0015cf 9508      	RET
                 
                 __LSRB12:
0015d0 23ee      	TST  R30
0015d1 2e0e      	MOV  R0,R30
0015d2 2fea      	MOV  R30,R26
0015d3 f019      	BREQ __LSRB12R
                 __LSRB12L:
0015d4 95e6      	LSR  R30
0015d5 940a      	DEC  R0
0015d6 f7e9      	BRNE __LSRB12L
                 __LSRB12R:
0015d7 9508      	RET
                 
                 __LSLW2:
0015d8 0fee      	LSL  R30
0015d9 1fff      	ROL  R31
0015da 0fee      	LSL  R30
0015db 1fff      	ROL  R31
0015dc 9508      	RET
                 
                 __ASRW2:
0015dd 95f5      	ASR  R31
0015de 95e7      	ROR  R30
0015df 95f5      	ASR  R31
0015e0 95e7      	ROR  R30
0015e1 9508      	RET
                 
                 __CBD1:
0015e2 2ffe      	MOV  R31,R30
0015e3 0fff      	ADD  R31,R31
0015e4 0bff      	SBC  R31,R31
0015e5 2f6f      	MOV  R22,R31
0015e6 2f7f      	MOV  R23,R31
0015e7 9508      	RET
                 
                 __CWD1:
0015e8 2f6f      	MOV  R22,R31
0015e9 0f66      	ADD  R22,R22
0015ea 0b66      	SBC  R22,R22
0015eb 2f76      	MOV  R23,R22
0015ec 9508      	RET
                 
                 __MULW12U:
0015ed 9ffa      	MUL  R31,R26
0015ee 2df0      	MOV  R31,R0
0015ef 9feb      	MUL  R30,R27
0015f0 0df0      	ADD  R31,R0
0015f1 9fea      	MUL  R30,R26
0015f2 2de0      	MOV  R30,R0
0015f3 0df1      	ADD  R31,R1
0015f4 9508      	RET
                 
                 __DIVB21U:
0015f5 2400      	CLR  R0
0015f6 e098      	LDI  R25,8
                 __DIVB21U1:
0015f7 0faa      	LSL  R26
0015f8 1c00      	ROL  R0
0015f9 1a0e      	SUB  R0,R30
0015fa f410      	BRCC __DIVB21U2
0015fb 0e0e      	ADD  R0,R30
0015fc c001      	RJMP __DIVB21U3
                 __DIVB21U2:
0015fd 60a1      	SBR  R26,1
                 __DIVB21U3:
0015fe 959a      	DEC  R25
0015ff f7b9      	BRNE __DIVB21U1
001600 2fea      	MOV  R30,R26
001601 2da0      	MOV  R26,R0
001602 9508      	RET
                 
                 __DIVB21:
001603 d039      	RCALL __CHKSIGNB
001604 dff0      	RCALL __DIVB21U
001605 f40e      	BRTC __DIVB211
001606 95e1      	NEG  R30
                 __DIVB211:
001607 9508      	RET
                 
                 __DIVD21U:
001608 933f      	PUSH R19
001609 934f      	PUSH R20
00160a 935f      	PUSH R21
00160b 2400      	CLR  R0
00160c 2411      	CLR  R1
00160d 2744      	CLR  R20
00160e 2755      	CLR  R21
00160f e230      	LDI  R19,32
                 __DIVD21U1:
001610 0faa      	LSL  R26
001611 1fbb      	ROL  R27
001612 1f88      	ROL  R24
001613 1f99      	ROL  R25
001614 1c00      	ROL  R0
001615 1c11      	ROL  R1
001616 1f44      	ROL  R20
001617 1f55      	ROL  R21
001618 1a0e      	SUB  R0,R30
001619 0a1f      	SBC  R1,R31
00161a 0b46      	SBC  R20,R22
00161b 0b57      	SBC  R21,R23
00161c f428      	BRCC __DIVD21U2
00161d 0e0e      	ADD  R0,R30
00161e 1e1f      	ADC  R1,R31
00161f 1f46      	ADC  R20,R22
001620 1f57      	ADC  R21,R23
001621 c001      	RJMP __DIVD21U3
                 __DIVD21U2:
001622 60a1      	SBR  R26,1
                 __DIVD21U3:
001623 953a      	DEC  R19
001624 f759      	BRNE __DIVD21U1
001625 01fd      	MOVW R30,R26
001626 01bc      	MOVW R22,R24
001627 01d0      	MOVW R26,R0
001628 01ca      	MOVW R24,R20
001629 915f      	POP  R21
00162a 914f      	POP  R20
00162b 913f      	POP  R19
00162c 9508      	RET
                 
                 __MODB21:
00162d 94e8      	CLT
00162e ffa7      	SBRS R26,7
00162f c002      	RJMP __MODB211
001630 95a1      	NEG  R26
001631 9468      	SET
                 __MODB211:
001632 fde7      	SBRC R30,7
001633 95e1      	NEG  R30
001634 dfc0      	RCALL __DIVB21U
001635 2fea      	MOV  R30,R26
001636 f40e      	BRTC __MODB212
001637 95e1      	NEG  R30
                 __MODB212:
001638 9508      	RET
                 
                 __MODD21U:
001639 dfce      	RCALL __DIVD21U
00163a 01fd      	MOVW R30,R26
00163b 01bc      	MOVW R22,R24
00163c 9508      	RET
                 
                 __CHKSIGNB:
00163d 94e8      	CLT
00163e ffe7      	SBRS R30,7
00163f c002      	RJMP __CHKSB1
001640 95e1      	NEG  R30
001641 9468      	SET
                 __CHKSB1:
001642 ffa7      	SBRS R26,7
001643 c004      	RJMP __CHKSB2
001644 95a1      	NEG  R26
001645 f800      	BLD  R0,0
001646 9403      	INC  R0
001647 fa00      	BST  R0,0
                 __CHKSB2:
001648 9508      	RET
                 
                 __GETW1P:
001649 91ed      	LD   R30,X+
00164a 91fc      	LD   R31,X
00164b 9711      	SBIW R26,1
00164c 9508      	RET
                 
                 __GETD1P:
00164d 91ed      	LD   R30,X+
00164e 91fd      	LD   R31,X+
00164f 916d      	LD   R22,X+
001650 917c      	LD   R23,X
001651 9713      	SBIW R26,3
001652 9508      	RET
                 
                 __GETD1S0:
001653 81e8      	LD   R30,Y
001654 81f9      	LDD  R31,Y+1
001655 816a      	LDD  R22,Y+2
001656 817b      	LDD  R23,Y+3
001657 9508      	RET
                 
                 __GETD2S0:
001658 81a8      	LD   R26,Y
001659 81b9      	LDD  R27,Y+1
00165a 818a      	LDD  R24,Y+2
00165b 819b      	LDD  R25,Y+3
00165c 9508      	RET
                 
                 __PUTD1S0:
00165d 83e8      	ST   Y,R30
00165e 83f9      	STD  Y+1,R31
00165f 836a      	STD  Y+2,R22
001660 837b      	STD  Y+3,R23
001661 9508      	RET
                 
                 __PUTPARD1:
001662 937a      	ST   -Y,R23
001663 936a      	ST   -Y,R22
001664 93fa      	ST   -Y,R31
001665 93ea      	ST   -Y,R30
001666 9508      	RET
                 
                 __PUTPARD2:
001667 939a      	ST   -Y,R25
001668 938a      	ST   -Y,R24
001669 93ba      	ST   -Y,R27
00166a 93aa      	ST   -Y,R26
00166b 9508      	RET
                 
                 __SWAPD12:
00166c 2e18      	MOV  R1,R24
00166d 2f86      	MOV  R24,R22
00166e 2d61      	MOV  R22,R1
00166f 2e19      	MOV  R1,R25
001670 2f97      	MOV  R25,R23
001671 2d71      	MOV  R23,R1
                 
                 __SWAPW12:
001672 2e1b      	MOV  R1,R27
001673 2fbf      	MOV  R27,R31
001674 2df1      	MOV  R31,R1
                 
                 __SWAPB12:
001675 2e1a      	MOV  R1,R26
001676 2fae      	MOV  R26,R30
001677 2de1      	MOV  R30,R1
001678 9508      	RET
                 
                 __EEPROMRDW:
001679 9611      	ADIW R26,1
00167a d002      	RCALL __EEPROMRDB
00167b 2ffe      	MOV  R31,R30
00167c 9711      	SBIW R26,1
                 
                 __EEPROMRDB:
00167d 99e1      	SBIC EECR,EEWE
00167e cffe      	RJMP __EEPROMRDB
00167f 93ff      	PUSH R31
001680 b7ff      	IN   R31,SREG
001681 94f8      	CLI
001682 bbae      	OUT  EEARL,R26
001683 bbbf      	OUT  EEARH,R27
001684 9ae0      	SBI  EECR,EERE
001685 b3ed      	IN   R30,EEDR
001686 bfff      	OUT  SREG,R31
001687 91ff      	POP  R31
001688 9508      	RET
                 
                 __EEPROMWRW:
001689 d007      	RCALL __EEPROMWRB
00168a 9611      	ADIW R26,1
00168b 93ef      	PUSH R30
00168c 2fef      	MOV  R30,R31
00168d d003      	RCALL __EEPROMWRB
00168e 91ef      	POP  R30
00168f 9711      	SBIW R26,1
001690 9508      	RET
                 
                 __EEPROMWRB:
001691 9be1      	SBIS EECR,EEWE
001692 c002      	RJMP __EEPROMWRB1
001693 95a8      	WDR
001694 cffc      	RJMP __EEPROMWRB
                 __EEPROMWRB1:
001695 b79f      	IN   R25,SREG
001696 94f8      	CLI
001697 bbae      	OUT  EEARL,R26
001698 bbbf      	OUT  EEARH,R27
001699 9ae0      	SBI  EECR,EERE
00169a b38d      	IN   R24,EEDR
00169b 17e8      	CP   R30,R24
00169c f019      	BREQ __EEPROMWRB0
00169d bbed      	OUT  EEDR,R30
00169e 9ae2      	SBI  EECR,EEMWE
00169f 9ae1      	SBI  EECR,EEWE
                 __EEPROMWRB0:
0016a0 bf9f      	OUT  SREG,R25
0016a1 9508      	RET
                 
                 __CPD10:
0016a2 9730      	SBIW R30,0
0016a3 4060      	SBCI R22,0
0016a4 4070      	SBCI R23,0
0016a5 9508      	RET
                 
                 __CPW02:
0016a6 2400      	CLR  R0
0016a7 160a      	CP   R0,R26
0016a8 060b      	CPC  R0,R27
0016a9 9508      	RET
                 
                 __SAVELOCR6:
0016aa 935a      	ST   -Y,R21
                 __SAVELOCR5:
0016ab 934a      	ST   -Y,R20
                 __SAVELOCR4:
0016ac 933a      	ST   -Y,R19
                 __SAVELOCR3:
0016ad 932a      	ST   -Y,R18
                 __SAVELOCR2:
0016ae 931a      	ST   -Y,R17
0016af 930a      	ST   -Y,R16
0016b0 9508      	RET
                 
                 __LOADLOCR6:
0016b1 815d      	LDD  R21,Y+5
                 __LOADLOCR5:
0016b2 814c      	LDD  R20,Y+4
                 __LOADLOCR4:
0016b3 813b      	LDD  R19,Y+3
                 __LOADLOCR3:
0016b4 812a      	LDD  R18,Y+2
                 __LOADLOCR2:
0016b5 8119      	LDD  R17,Y+1
0016b6 8108      	LD   R16,Y
0016b7 9508      	RET
                 
                 ;END OF CODE MARKER
                 __END_OF_CODE:


RESOURCE USE INFORMATION
------------------------

Notice:
The register and instruction counts are symbol table hit counts,
and hence implicitly used resources are not counted, eg, the
'lpm' instruction without operands implicitly uses r0 and z,
none of which are counted.

x,y,z are separate entities in the symbol table and are
counted separately from r26..r31 here.

.dseg memory usage only counts static data declared with .byte

ATmega16 register use summary:
r0 :  79 r1 :  41 r2 :   0 r3 :   0 r4 :   4 r5 :   4 r6 :   0 r7 :   5 
r8 :   0 r9 :   0 r10:   0 r11:   0 r12:   0 r13:   0 r14:   0 r15:   4 
r16: 170 r17: 207 r18: 110 r19: 100 r20:  87 r21: 137 r22: 122 r23: 104 
r24:  70 r25:  65 r26: 665 r27: 242 r28:  61 r29:   1 r30:1384 r31: 334 
x  :  50 y  :1136 z  :  37 
Registers used: 25 out of 35 (71.4%)

ATmega16 instruction use summary:
.lds  :   0 .lds.l:   0 .sts  :   0 .sts.l:   0 adc   :  39 add   :  51 
adiw  :  67 and   :  15 andi  :  30 asr   :   2 bclr  :   0 bld   :   3 
brbc  :   0 brbs  :   0 brcc  :   8 brcs  :   2 break :   0 breq  :  83 
brge  :  21 brhc  :   0 brhs  :   0 brid  :   0 brie  :   0 brlo  :  48 
brlt  :  16 brmi  :  15 brne  : 136 brpl  :  14 brsh  :  38 brtc  :   4 
brts  :   1 brvc  :   4 brvs  :   4 bset  :   0 bst   :   3 call  : 433 
cbi   :   9 cbr   :   1 clc   :   3 clh   :   0 cli   :   4 cln   :   0 
clr   :  93 cls   :   0 clt   :   5 clv   :   0 clz   :   2 com   :  16 
cp    :  64 cpc   :  46 cpi   : 185 cpse  :   0 dec   :  15 des   :   0 
eor   :   8 fmul  :   0 fmuls :   0 fmulsu:   0 icall :   5 ijmp  :   0 
in    :   8 inc   :  12 jmp   :  38 ld    :  72 ldd   : 606 ldi   : 477 
lds   :  47 lpm   :  28 lsl   :  21 lsr   :  18 mov   : 231 movw  :  91 
mul   :  14 muls  :   1 mulsu :   0 neg   :  11 nop   :   2 or    :   6 
ori   :  10 out   :  60 pop   :  36 push  :  36 rcall : 124 ret   : 154 
reti  :   1 rjmp  : 295 rol   :  37 ror   :  17 sbc   :  22 sbci  :  41 
sbi   :  21 sbic  :  10 sbis  :  10 sbiw  :  46 sbr   :   4 sbrc  :   4 
sbrs  :  22 sec   :   5 seh   :   0 sei   :   2 sen   :   0 ser   :   8 
ses   :   0 set   :   4 sev   :   0 sez   :   1 sleep :   0 spm   :   0 
st    : 347 std   : 179 sts   :  31 sub   :  37 subi  : 124 swap  :   1 
tst   :  37 wdr   :   2 
Instructions used: 86 out of 116 (74.1%)

ATmega16 memory use summary [bytes]:
Segment   Begin    End      Code   Data   Used    Size   Use%
---------------------------------------------------------------
[.cseg] 0x000000 0x002d70  10888    744  11632   16384  71.0%
[.dseg] 0x000060 0x000220      0    192    192    1024  18.8%
[.eseg] 0x000000 0x000082      0    130    130     512  25.4%

Assembly complete, 0 errors, 7 warnings
